   1               		.file	"HIDParser.c"
   2               	__SP_H__ = 0x3e
   3               	__SP_L__ = 0x3d
   4               	__SREG__ = 0x3f
   5               	__tmp_reg__ = 0
   6               	__zero_reg__ = 1
   7               		.text
   8               	.Ltext0:
   9               		.cfi_sections	.debug_frame
  10               		.section	.text.USB_ProcessHIDReport,"ax",@progbits
  11               	.global	USB_ProcessHIDReport
  13               	USB_ProcessHIDReport:
  14               	.LFB16:
  15               		.file 1 "../../protocol/lufa/LUFA-120730/LUFA/Drivers/USB/Class/Common/HIDParser.c"
   1:../../protocol/lufa/LUFA-120730/LUFA/Drivers/USB/Class/Common/HIDParser.c **** /*
   2:../../protocol/lufa/LUFA-120730/LUFA/Drivers/USB/Class/Common/HIDParser.c ****              LUFA Library
   3:../../protocol/lufa/LUFA-120730/LUFA/Drivers/USB/Class/Common/HIDParser.c ****      Copyright (C) Dean Camera, 2012.
   4:../../protocol/lufa/LUFA-120730/LUFA/Drivers/USB/Class/Common/HIDParser.c **** 
   5:../../protocol/lufa/LUFA-120730/LUFA/Drivers/USB/Class/Common/HIDParser.c ****   dean [at] fourwalledcubicle [dot] com
   6:../../protocol/lufa/LUFA-120730/LUFA/Drivers/USB/Class/Common/HIDParser.c ****            www.lufa-lib.org
   7:../../protocol/lufa/LUFA-120730/LUFA/Drivers/USB/Class/Common/HIDParser.c **** */
   8:../../protocol/lufa/LUFA-120730/LUFA/Drivers/USB/Class/Common/HIDParser.c **** 
   9:../../protocol/lufa/LUFA-120730/LUFA/Drivers/USB/Class/Common/HIDParser.c **** /*
  10:../../protocol/lufa/LUFA-120730/LUFA/Drivers/USB/Class/Common/HIDParser.c ****   Copyright 2012  Dean Camera (dean [at] fourwalledcubicle [dot] com)
  11:../../protocol/lufa/LUFA-120730/LUFA/Drivers/USB/Class/Common/HIDParser.c **** 
  12:../../protocol/lufa/LUFA-120730/LUFA/Drivers/USB/Class/Common/HIDParser.c ****   Permission to use, copy, modify, distribute, and sell this
  13:../../protocol/lufa/LUFA-120730/LUFA/Drivers/USB/Class/Common/HIDParser.c ****   software and its documentation for any purpose is hereby granted
  14:../../protocol/lufa/LUFA-120730/LUFA/Drivers/USB/Class/Common/HIDParser.c ****   without fee, provided that the above copyright notice appear in
  15:../../protocol/lufa/LUFA-120730/LUFA/Drivers/USB/Class/Common/HIDParser.c ****   all copies and that both that the copyright notice and this
  16:../../protocol/lufa/LUFA-120730/LUFA/Drivers/USB/Class/Common/HIDParser.c ****   permission notice and warranty disclaimer appear in supporting
  17:../../protocol/lufa/LUFA-120730/LUFA/Drivers/USB/Class/Common/HIDParser.c ****   documentation, and that the name of the author not be used in
  18:../../protocol/lufa/LUFA-120730/LUFA/Drivers/USB/Class/Common/HIDParser.c ****   advertising or publicity pertaining to distribution of the
  19:../../protocol/lufa/LUFA-120730/LUFA/Drivers/USB/Class/Common/HIDParser.c ****   software without specific, written prior permission.
  20:../../protocol/lufa/LUFA-120730/LUFA/Drivers/USB/Class/Common/HIDParser.c **** 
  21:../../protocol/lufa/LUFA-120730/LUFA/Drivers/USB/Class/Common/HIDParser.c ****   The author disclaim all warranties with regard to this
  22:../../protocol/lufa/LUFA-120730/LUFA/Drivers/USB/Class/Common/HIDParser.c ****   software, including all implied warranties of merchantability
  23:../../protocol/lufa/LUFA-120730/LUFA/Drivers/USB/Class/Common/HIDParser.c ****   and fitness.  In no event shall the author be liable for any
  24:../../protocol/lufa/LUFA-120730/LUFA/Drivers/USB/Class/Common/HIDParser.c ****   special, indirect or consequential damages or any damages
  25:../../protocol/lufa/LUFA-120730/LUFA/Drivers/USB/Class/Common/HIDParser.c ****   whatsoever resulting from loss of use, data or profits, whether
  26:../../protocol/lufa/LUFA-120730/LUFA/Drivers/USB/Class/Common/HIDParser.c ****   in an action of contract, negligence or other tortious action,
  27:../../protocol/lufa/LUFA-120730/LUFA/Drivers/USB/Class/Common/HIDParser.c ****   arising out of or in connection with the use or performance of
  28:../../protocol/lufa/LUFA-120730/LUFA/Drivers/USB/Class/Common/HIDParser.c ****   this software.
  29:../../protocol/lufa/LUFA-120730/LUFA/Drivers/USB/Class/Common/HIDParser.c **** */
  30:../../protocol/lufa/LUFA-120730/LUFA/Drivers/USB/Class/Common/HIDParser.c **** 
  31:../../protocol/lufa/LUFA-120730/LUFA/Drivers/USB/Class/Common/HIDParser.c **** #define  __INCLUDE_FROM_USB_DRIVER
  32:../../protocol/lufa/LUFA-120730/LUFA/Drivers/USB/Class/Common/HIDParser.c **** #define  __INCLUDE_FROM_HID_DRIVER
  33:../../protocol/lufa/LUFA-120730/LUFA/Drivers/USB/Class/Common/HIDParser.c **** #include "HIDParser.h"
  34:../../protocol/lufa/LUFA-120730/LUFA/Drivers/USB/Class/Common/HIDParser.c **** 
  35:../../protocol/lufa/LUFA-120730/LUFA/Drivers/USB/Class/Common/HIDParser.c **** uint8_t USB_ProcessHIDReport(const uint8_t* ReportData,
  36:../../protocol/lufa/LUFA-120730/LUFA/Drivers/USB/Class/Common/HIDParser.c ****                              uint16_t ReportSize,
  37:../../protocol/lufa/LUFA-120730/LUFA/Drivers/USB/Class/Common/HIDParser.c ****                              HID_ReportInfo_t* const ParserData)
  38:../../protocol/lufa/LUFA-120730/LUFA/Drivers/USB/Class/Common/HIDParser.c **** {
  16               		.loc 1 38 0
  17               		.cfi_startproc
  18               	.LVL0:
  19 0000 2F92      		push r2
  20               	.LCFI0:
  21               		.cfi_def_cfa_offset 3
  22               		.cfi_offset 2, -2
  23 0002 3F92      		push r3
  24               	.LCFI1:
  25               		.cfi_def_cfa_offset 4
  26               		.cfi_offset 3, -3
  27 0004 4F92      		push r4
  28               	.LCFI2:
  29               		.cfi_def_cfa_offset 5
  30               		.cfi_offset 4, -4
  31 0006 5F92      		push r5
  32               	.LCFI3:
  33               		.cfi_def_cfa_offset 6
  34               		.cfi_offset 5, -5
  35 0008 6F92      		push r6
  36               	.LCFI4:
  37               		.cfi_def_cfa_offset 7
  38               		.cfi_offset 6, -6
  39 000a 7F92      		push r7
  40               	.LCFI5:
  41               		.cfi_def_cfa_offset 8
  42               		.cfi_offset 7, -7
  43 000c 8F92      		push r8
  44               	.LCFI6:
  45               		.cfi_def_cfa_offset 9
  46               		.cfi_offset 8, -8
  47 000e 9F92      		push r9
  48               	.LCFI7:
  49               		.cfi_def_cfa_offset 10
  50               		.cfi_offset 9, -9
  51 0010 AF92      		push r10
  52               	.LCFI8:
  53               		.cfi_def_cfa_offset 11
  54               		.cfi_offset 10, -10
  55 0012 BF92      		push r11
  56               	.LCFI9:
  57               		.cfi_def_cfa_offset 12
  58               		.cfi_offset 11, -11
  59 0014 CF92      		push r12
  60               	.LCFI10:
  61               		.cfi_def_cfa_offset 13
  62               		.cfi_offset 12, -12
  63 0016 DF92      		push r13
  64               	.LCFI11:
  65               		.cfi_def_cfa_offset 14
  66               		.cfi_offset 13, -13
  67 0018 EF92      		push r14
  68               	.LCFI12:
  69               		.cfi_def_cfa_offset 15
  70               		.cfi_offset 14, -14
  71 001a FF92      		push r15
  72               	.LCFI13:
  73               		.cfi_def_cfa_offset 16
  74               		.cfi_offset 15, -15
  75 001c 0F93      		push r16
  76               	.LCFI14:
  77               		.cfi_def_cfa_offset 17
  78               		.cfi_offset 16, -16
  79 001e 1F93      		push r17
  80               	.LCFI15:
  81               		.cfi_def_cfa_offset 18
  82               		.cfi_offset 17, -17
  83 0020 CF93      		push r28
  84               	.LCFI16:
  85               		.cfi_def_cfa_offset 19
  86               		.cfi_offset 28, -18
  87 0022 DF93      		push r29
  88               	.LCFI17:
  89               		.cfi_def_cfa_offset 20
  90               		.cfi_offset 29, -19
  91 0024 CDB7      		in r28,__SP_L__
  92 0026 DEB7      		in r29,__SP_H__
  93               	.LCFI18:
  94               		.cfi_def_cfa_register 28
  95 0028 CC58      		subi r28,-116
  96 002a D109      		sbc r29,__zero_reg__
  97               	.LCFI19:
  98               		.cfi_def_cfa_offset 160
  99 002c 0FB6      		in __tmp_reg__,__SREG__
 100 002e F894      		cli
 101 0030 DEBF      		out __SP_H__,r29
 102 0032 0FBE      		out __SREG__,__tmp_reg__
 103 0034 CDBF      		out __SP_L__,r28
 104               	/* prologue: function */
 105               	/* frame size = 140 */
 106               	/* stack size = 158 */
 107               	.L__stack_usage = 158
 108 0036 6C01      		movw r12,r24
 109               	.LVL1:
  39:../../protocol/lufa/LUFA-120730/LUFA/Drivers/USB/Class/Common/HIDParser.c **** 	HID_StateTable_t      StateTable[HID_STATETABLE_STACK_DEPTH];
  40:../../protocol/lufa/LUFA-120730/LUFA/Drivers/USB/Class/Common/HIDParser.c **** 	HID_StateTable_t*     CurrStateTable          = &StateTable[0];
  41:../../protocol/lufa/LUFA-120730/LUFA/Drivers/USB/Class/Common/HIDParser.c **** 	HID_CollectionPath_t* CurrCollectionPath      = NULL;
  42:../../protocol/lufa/LUFA-120730/LUFA/Drivers/USB/Class/Common/HIDParser.c **** 	HID_ReportSizeInfo_t* CurrReportIDInfo        = &ParserData->ReportIDSizes[0];
 110               		.loc 1 42 0
 111 0038 9A01      		movw r18,r20
 112 003a 2057      		subi r18,112
 113 003c 3C4F      		sbci r19,-4
 114 003e E596      		adiw r28,115-62
 115 0040 3FAF      		std Y+63,r19
 116 0042 2EAF      		std Y+62,r18
 117 0044 E597      		sbiw r28,115-62
 118               	.LVL2:
  43:../../protocol/lufa/LUFA-120730/LUFA/Drivers/USB/Class/Common/HIDParser.c **** 	uint16_t              UsageList[HID_USAGE_STACK_DEPTH];
  44:../../protocol/lufa/LUFA-120730/LUFA/Drivers/USB/Class/Common/HIDParser.c **** 	uint8_t               UsageListSize           = 0;
  45:../../protocol/lufa/LUFA-120730/LUFA/Drivers/USB/Class/Common/HIDParser.c **** 	HID_MinMax_t          UsageMinMax             = {0, 0};
  46:../../protocol/lufa/LUFA-120730/LUFA/Drivers/USB/Class/Common/HIDParser.c **** 
  47:../../protocol/lufa/LUFA-120730/LUFA/Drivers/USB/Class/Common/HIDParser.c **** 	memset(ParserData,       0x00, sizeof(HID_ReportInfo_t));
 119               		.loc 1 47 0
 120 0046 89ED      		ldi r24,lo8(-39)
 121 0048 93E0      		ldi r25,lo8(3)
 122               	.LVL3:
 123 004a DA01      		movw r26,r20
 124 004c FC01      		movw r30,r24
 125               		0:
 126 004e 1D92      		st X+,__zero_reg__
 127 0050 3197      		sbiw r30,1
 128 0052 01F4      		brne 0b
  48:../../protocol/lufa/LUFA-120730/LUFA/Drivers/USB/Class/Common/HIDParser.c **** 	memset(CurrStateTable,   0x00, sizeof(HID_StateTable_t));
 129               		.loc 1 48 0
 130 0054 FE01      		movw r30,r28
 131 0056 3196      		adiw r30,1
 132 0058 8CE1      		ldi r24,lo8(28)
 133 005a DF01      		movw r26,r30
 134               		0:
 135 005c 1D92      		st X+,__zero_reg__
 136 005e 8A95      		dec r24
 137 0060 01F4      		brne 0b
  49:../../protocol/lufa/LUFA-120730/LUFA/Drivers/USB/Class/Common/HIDParser.c **** 	memset(CurrReportIDInfo, 0x00, sizeof(HID_ReportSizeInfo_t));
 138               		.loc 1 49 0
 139 0062 87E0      		ldi r24,lo8(7)
 140 0064 D901      		movw r26,r18
 141               		0:
 142 0066 1D92      		st X+,__zero_reg__
 143 0068 8A95      		dec r24
 144 006a 01F4      		brne 0b
  50:../../protocol/lufa/LUFA-120730/LUFA/Drivers/USB/Class/Common/HIDParser.c **** 
  51:../../protocol/lufa/LUFA-120730/LUFA/Drivers/USB/Class/Common/HIDParser.c **** 	ParserData->TotalDeviceReports = 1;
 145               		.loc 1 51 0
 146 006c 2150      		subi r18,1
 147 006e 3109      		sbc r19,__zero_reg__
 148               	.LVL4:
 149 0070 ED96      		adiw r28,123-62
 150 0072 3FAF      		std Y+63,r19
 151 0074 2EAF      		std Y+62,r18
 152 0076 ED97      		sbiw r28,123-62
 153 0078 81E0      		ldi r24,lo8(1)
 154 007a D901      		movw r26,r18
 155 007c 8C93      		st X,r24
  45:../../protocol/lufa/LUFA-120730/LUFA/Drivers/USB/Class/Common/HIDParser.c **** 
 156               		.loc 1 45 0
 157 007e E996      		adiw r28,117-60
 158 0080 1CAE      		std Y+60,__zero_reg__
 159 0082 1DAE      		std Y+61,__zero_reg__
 160 0084 1EAE      		std Y+62,__zero_reg__
 161 0086 1FAE      		std Y+63,__zero_reg__
 162 0088 E997      		sbiw r28,117-60
 163 008a 412C      		mov r4,__zero_reg__
 164 008c 512C      		mov r5,__zero_reg__
 165 008e 3201      		movw r6,r4
  44:../../protocol/lufa/LUFA-120730/LUFA/Drivers/USB/Class/Common/HIDParser.c **** 	HID_MinMax_t          UsageMinMax             = {0, 0};
 166               		.loc 1 44 0
 167 0090 00E0      		ldi r16,0
  41:../../protocol/lufa/LUFA-120730/LUFA/Drivers/USB/Class/Common/HIDParser.c **** 	HID_ReportSizeInfo_t* CurrReportIDInfo        = &ParserData->ReportIDSizes[0];
 168               		.loc 1 41 0
 169 0092 212C      		mov r2,__zero_reg__
 170 0094 312C      		mov r3,__zero_reg__
  40:../../protocol/lufa/LUFA-120730/LUFA/Drivers/USB/Class/Common/HIDParser.c **** 	HID_CollectionPath_t* CurrCollectionPath      = NULL;
 171               		.loc 1 40 0
 172 0096 7F01      		movw r14,r30
 173               	.LBB2:
 174               	.LBB3:
 175               	.LBB4:
  52:../../protocol/lufa/LUFA-120730/LUFA/Drivers/USB/Class/Common/HIDParser.c **** 
  53:../../protocol/lufa/LUFA-120730/LUFA/Drivers/USB/Class/Common/HIDParser.c **** 	while (ReportSize)
  54:../../protocol/lufa/LUFA-120730/LUFA/Drivers/USB/Class/Common/HIDParser.c **** 	{
  55:../../protocol/lufa/LUFA-120730/LUFA/Drivers/USB/Class/Common/HIDParser.c **** 		uint8_t  HIDReportItem  = *ReportData;
  56:../../protocol/lufa/LUFA-120730/LUFA/Drivers/USB/Class/Common/HIDParser.c **** 		uint32_t ReportItemData = 0;
  57:../../protocol/lufa/LUFA-120730/LUFA/Drivers/USB/Class/Common/HIDParser.c **** 
  58:../../protocol/lufa/LUFA-120730/LUFA/Drivers/USB/Class/Common/HIDParser.c **** 		ReportData++;
  59:../../protocol/lufa/LUFA-120730/LUFA/Drivers/USB/Class/Common/HIDParser.c **** 		ReportSize--;
  60:../../protocol/lufa/LUFA-120730/LUFA/Drivers/USB/Class/Common/HIDParser.c **** 
  61:../../protocol/lufa/LUFA-120730/LUFA/Drivers/USB/Class/Common/HIDParser.c **** 		switch (HIDReportItem & HID_RI_DATA_SIZE_MASK)
  62:../../protocol/lufa/LUFA-120730/LUFA/Drivers/USB/Class/Common/HIDParser.c **** 		{
  63:../../protocol/lufa/LUFA-120730/LUFA/Drivers/USB/Class/Common/HIDParser.c **** 			case HID_RI_DATA_BITS_32:
  64:../../protocol/lufa/LUFA-120730/LUFA/Drivers/USB/Class/Common/HIDParser.c **** 				ReportItemData  = (((uint32_t)ReportData[3] << 24) | ((uint32_t)ReportData[2] << 16) |
  65:../../protocol/lufa/LUFA-120730/LUFA/Drivers/USB/Class/Common/HIDParser.c **** 			                       ((uint16_t)ReportData[1] << 8)  | ReportData[0]);
  66:../../protocol/lufa/LUFA-120730/LUFA/Drivers/USB/Class/Common/HIDParser.c **** 				ReportSize     -= 4;
  67:../../protocol/lufa/LUFA-120730/LUFA/Drivers/USB/Class/Common/HIDParser.c **** 				ReportData     += 4;
  68:../../protocol/lufa/LUFA-120730/LUFA/Drivers/USB/Class/Common/HIDParser.c **** 				break;
  69:../../protocol/lufa/LUFA-120730/LUFA/Drivers/USB/Class/Common/HIDParser.c **** 			case HID_RI_DATA_BITS_16:
  70:../../protocol/lufa/LUFA-120730/LUFA/Drivers/USB/Class/Common/HIDParser.c **** 				ReportItemData  = (((uint16_t)ReportData[1] << 8) | (ReportData[0]));
  71:../../protocol/lufa/LUFA-120730/LUFA/Drivers/USB/Class/Common/HIDParser.c **** 				ReportSize     -= 2;
  72:../../protocol/lufa/LUFA-120730/LUFA/Drivers/USB/Class/Common/HIDParser.c **** 				ReportData     += 2;
  73:../../protocol/lufa/LUFA-120730/LUFA/Drivers/USB/Class/Common/HIDParser.c **** 				break;
  74:../../protocol/lufa/LUFA-120730/LUFA/Drivers/USB/Class/Common/HIDParser.c **** 			case HID_RI_DATA_BITS_8:
  75:../../protocol/lufa/LUFA-120730/LUFA/Drivers/USB/Class/Common/HIDParser.c **** 				ReportItemData  = ReportData[0];
  76:../../protocol/lufa/LUFA-120730/LUFA/Drivers/USB/Class/Common/HIDParser.c **** 				ReportSize     -= 1;
  77:../../protocol/lufa/LUFA-120730/LUFA/Drivers/USB/Class/Common/HIDParser.c **** 				ReportData     += 1;
  78:../../protocol/lufa/LUFA-120730/LUFA/Drivers/USB/Class/Common/HIDParser.c **** 				break;
  79:../../protocol/lufa/LUFA-120730/LUFA/Drivers/USB/Class/Common/HIDParser.c **** 		}
  80:../../protocol/lufa/LUFA-120730/LUFA/Drivers/USB/Class/Common/HIDParser.c **** 
  81:../../protocol/lufa/LUFA-120730/LUFA/Drivers/USB/Class/Common/HIDParser.c **** 		switch (HIDReportItem & (HID_RI_TYPE_MASK | HID_RI_TAG_MASK))
  82:../../protocol/lufa/LUFA-120730/LUFA/Drivers/USB/Class/Common/HIDParser.c **** 		{
  83:../../protocol/lufa/LUFA-120730/LUFA/Drivers/USB/Class/Common/HIDParser.c **** 			case HID_RI_PUSH(0):
  84:../../protocol/lufa/LUFA-120730/LUFA/Drivers/USB/Class/Common/HIDParser.c **** 				if (CurrStateTable == &StateTable[HID_STATETABLE_STACK_DEPTH - 1])
  85:../../protocol/lufa/LUFA-120730/LUFA/Drivers/USB/Class/Common/HIDParser.c **** 				  return HID_PARSE_HIDStackOverflow;
  86:../../protocol/lufa/LUFA-120730/LUFA/Drivers/USB/Class/Common/HIDParser.c **** 
  87:../../protocol/lufa/LUFA-120730/LUFA/Drivers/USB/Class/Common/HIDParser.c **** 				memcpy((CurrStateTable + 1),
  88:../../protocol/lufa/LUFA-120730/LUFA/Drivers/USB/Class/Common/HIDParser.c **** 				       CurrStateTable,
  89:../../protocol/lufa/LUFA-120730/LUFA/Drivers/USB/Class/Common/HIDParser.c **** 				       sizeof(HID_ReportItem_t));
  90:../../protocol/lufa/LUFA-120730/LUFA/Drivers/USB/Class/Common/HIDParser.c **** 
  91:../../protocol/lufa/LUFA-120730/LUFA/Drivers/USB/Class/Common/HIDParser.c **** 				CurrStateTable++;
  92:../../protocol/lufa/LUFA-120730/LUFA/Drivers/USB/Class/Common/HIDParser.c **** 				break;
  93:../../protocol/lufa/LUFA-120730/LUFA/Drivers/USB/Class/Common/HIDParser.c **** 			case HID_RI_POP(0):
  94:../../protocol/lufa/LUFA-120730/LUFA/Drivers/USB/Class/Common/HIDParser.c **** 				if (CurrStateTable == &StateTable[0])
  95:../../protocol/lufa/LUFA-120730/LUFA/Drivers/USB/Class/Common/HIDParser.c **** 				  return HID_PARSE_HIDStackUnderflow;
  96:../../protocol/lufa/LUFA-120730/LUFA/Drivers/USB/Class/Common/HIDParser.c **** 
  97:../../protocol/lufa/LUFA-120730/LUFA/Drivers/USB/Class/Common/HIDParser.c **** 				CurrStateTable--;
  98:../../protocol/lufa/LUFA-120730/LUFA/Drivers/USB/Class/Common/HIDParser.c **** 				break;
  99:../../protocol/lufa/LUFA-120730/LUFA/Drivers/USB/Class/Common/HIDParser.c **** 			case HID_RI_USAGE_PAGE(0):
 100:../../protocol/lufa/LUFA-120730/LUFA/Drivers/USB/Class/Common/HIDParser.c **** 				if ((HIDReportItem & HID_RI_DATA_SIZE_MASK) == HID_RI_DATA_BITS_32)
 101:../../protocol/lufa/LUFA-120730/LUFA/Drivers/USB/Class/Common/HIDParser.c **** 				  CurrStateTable->Attributes.Usage.Page = (ReportItemData >> 16);
 102:../../protocol/lufa/LUFA-120730/LUFA/Drivers/USB/Class/Common/HIDParser.c **** 
 103:../../protocol/lufa/LUFA-120730/LUFA/Drivers/USB/Class/Common/HIDParser.c **** 				CurrStateTable->Attributes.Usage.Page       = ReportItemData;
 104:../../protocol/lufa/LUFA-120730/LUFA/Drivers/USB/Class/Common/HIDParser.c **** 				break;
 105:../../protocol/lufa/LUFA-120730/LUFA/Drivers/USB/Class/Common/HIDParser.c **** 			case HID_RI_LOGICAL_MINIMUM(0):
 106:../../protocol/lufa/LUFA-120730/LUFA/Drivers/USB/Class/Common/HIDParser.c **** 				CurrStateTable->Attributes.Logical.Minimum  = ReportItemData;
 107:../../protocol/lufa/LUFA-120730/LUFA/Drivers/USB/Class/Common/HIDParser.c **** 				break;
 108:../../protocol/lufa/LUFA-120730/LUFA/Drivers/USB/Class/Common/HIDParser.c **** 			case HID_RI_LOGICAL_MAXIMUM(0):
 109:../../protocol/lufa/LUFA-120730/LUFA/Drivers/USB/Class/Common/HIDParser.c **** 				CurrStateTable->Attributes.Logical.Maximum  = ReportItemData;
 110:../../protocol/lufa/LUFA-120730/LUFA/Drivers/USB/Class/Common/HIDParser.c **** 				break;
 111:../../protocol/lufa/LUFA-120730/LUFA/Drivers/USB/Class/Common/HIDParser.c **** 			case HID_RI_PHYSICAL_MINIMUM(0):
 112:../../protocol/lufa/LUFA-120730/LUFA/Drivers/USB/Class/Common/HIDParser.c **** 				CurrStateTable->Attributes.Physical.Minimum = ReportItemData;
 113:../../protocol/lufa/LUFA-120730/LUFA/Drivers/USB/Class/Common/HIDParser.c **** 				break;
 114:../../protocol/lufa/LUFA-120730/LUFA/Drivers/USB/Class/Common/HIDParser.c **** 			case HID_RI_PHYSICAL_MAXIMUM(0):
 115:../../protocol/lufa/LUFA-120730/LUFA/Drivers/USB/Class/Common/HIDParser.c **** 				CurrStateTable->Attributes.Physical.Maximum = ReportItemData;
 116:../../protocol/lufa/LUFA-120730/LUFA/Drivers/USB/Class/Common/HIDParser.c **** 				break;
 117:../../protocol/lufa/LUFA-120730/LUFA/Drivers/USB/Class/Common/HIDParser.c **** 			case HID_RI_UNIT_EXPONENT(0):
 118:../../protocol/lufa/LUFA-120730/LUFA/Drivers/USB/Class/Common/HIDParser.c **** 				CurrStateTable->Attributes.Unit.Exponent    = ReportItemData;
 119:../../protocol/lufa/LUFA-120730/LUFA/Drivers/USB/Class/Common/HIDParser.c **** 				break;
 120:../../protocol/lufa/LUFA-120730/LUFA/Drivers/USB/Class/Common/HIDParser.c **** 			case HID_RI_UNIT(0):
 121:../../protocol/lufa/LUFA-120730/LUFA/Drivers/USB/Class/Common/HIDParser.c **** 				CurrStateTable->Attributes.Unit.Type        = ReportItemData;
 122:../../protocol/lufa/LUFA-120730/LUFA/Drivers/USB/Class/Common/HIDParser.c **** 				break;
 123:../../protocol/lufa/LUFA-120730/LUFA/Drivers/USB/Class/Common/HIDParser.c **** 			case HID_RI_REPORT_SIZE(0):
 124:../../protocol/lufa/LUFA-120730/LUFA/Drivers/USB/Class/Common/HIDParser.c **** 				CurrStateTable->Attributes.BitSize          = ReportItemData;
 125:../../protocol/lufa/LUFA-120730/LUFA/Drivers/USB/Class/Common/HIDParser.c **** 				break;
 126:../../protocol/lufa/LUFA-120730/LUFA/Drivers/USB/Class/Common/HIDParser.c **** 			case HID_RI_REPORT_COUNT(0):
 127:../../protocol/lufa/LUFA-120730/LUFA/Drivers/USB/Class/Common/HIDParser.c **** 				CurrStateTable->ReportCount                 = ReportItemData;
 128:../../protocol/lufa/LUFA-120730/LUFA/Drivers/USB/Class/Common/HIDParser.c **** 				break;
 129:../../protocol/lufa/LUFA-120730/LUFA/Drivers/USB/Class/Common/HIDParser.c **** 			case HID_RI_REPORT_ID(0):
 130:../../protocol/lufa/LUFA-120730/LUFA/Drivers/USB/Class/Common/HIDParser.c **** 				CurrStateTable->ReportID                    = ReportItemData;
 131:../../protocol/lufa/LUFA-120730/LUFA/Drivers/USB/Class/Common/HIDParser.c **** 
 132:../../protocol/lufa/LUFA-120730/LUFA/Drivers/USB/Class/Common/HIDParser.c **** 				if (ParserData->UsingReportIDs)
 133:../../protocol/lufa/LUFA-120730/LUFA/Drivers/USB/Class/Common/HIDParser.c **** 				{
 134:../../protocol/lufa/LUFA-120730/LUFA/Drivers/USB/Class/Common/HIDParser.c **** 					CurrReportIDInfo = NULL;
 135:../../protocol/lufa/LUFA-120730/LUFA/Drivers/USB/Class/Common/HIDParser.c **** 
 136:../../protocol/lufa/LUFA-120730/LUFA/Drivers/USB/Class/Common/HIDParser.c **** 					for (uint8_t i = 0; i < ParserData->TotalDeviceReports; i++)
 137:../../protocol/lufa/LUFA-120730/LUFA/Drivers/USB/Class/Common/HIDParser.c **** 					{
 138:../../protocol/lufa/LUFA-120730/LUFA/Drivers/USB/Class/Common/HIDParser.c **** 						if (ParserData->ReportIDSizes[i].ReportID == CurrStateTable->ReportID)
 139:../../protocol/lufa/LUFA-120730/LUFA/Drivers/USB/Class/Common/HIDParser.c **** 						{
 140:../../protocol/lufa/LUFA-120730/LUFA/Drivers/USB/Class/Common/HIDParser.c **** 							CurrReportIDInfo = &ParserData->ReportIDSizes[i];
 141:../../protocol/lufa/LUFA-120730/LUFA/Drivers/USB/Class/Common/HIDParser.c **** 							break;
 142:../../protocol/lufa/LUFA-120730/LUFA/Drivers/USB/Class/Common/HIDParser.c **** 						}
 143:../../protocol/lufa/LUFA-120730/LUFA/Drivers/USB/Class/Common/HIDParser.c **** 					}
 144:../../protocol/lufa/LUFA-120730/LUFA/Drivers/USB/Class/Common/HIDParser.c **** 
 145:../../protocol/lufa/LUFA-120730/LUFA/Drivers/USB/Class/Common/HIDParser.c **** 					if (CurrReportIDInfo == NULL)
 146:../../protocol/lufa/LUFA-120730/LUFA/Drivers/USB/Class/Common/HIDParser.c **** 					{
 147:../../protocol/lufa/LUFA-120730/LUFA/Drivers/USB/Class/Common/HIDParser.c **** 						if (ParserData->TotalDeviceReports == HID_MAX_REPORT_IDS)
 148:../../protocol/lufa/LUFA-120730/LUFA/Drivers/USB/Class/Common/HIDParser.c **** 						  return HID_PARSE_InsufficientReportIDItems;
 149:../../protocol/lufa/LUFA-120730/LUFA/Drivers/USB/Class/Common/HIDParser.c **** 
 150:../../protocol/lufa/LUFA-120730/LUFA/Drivers/USB/Class/Common/HIDParser.c **** 						CurrReportIDInfo = &ParserData->ReportIDSizes[ParserData->TotalDeviceReports++];
 151:../../protocol/lufa/LUFA-120730/LUFA/Drivers/USB/Class/Common/HIDParser.c **** 						memset(CurrReportIDInfo, 0x00, sizeof(HID_ReportSizeInfo_t));
 152:../../protocol/lufa/LUFA-120730/LUFA/Drivers/USB/Class/Common/HIDParser.c **** 					}
 153:../../protocol/lufa/LUFA-120730/LUFA/Drivers/USB/Class/Common/HIDParser.c **** 				}
 154:../../protocol/lufa/LUFA-120730/LUFA/Drivers/USB/Class/Common/HIDParser.c **** 
 155:../../protocol/lufa/LUFA-120730/LUFA/Drivers/USB/Class/Common/HIDParser.c **** 				ParserData->UsingReportIDs = true;
 156:../../protocol/lufa/LUFA-120730/LUFA/Drivers/USB/Class/Common/HIDParser.c **** 
 157:../../protocol/lufa/LUFA-120730/LUFA/Drivers/USB/Class/Common/HIDParser.c **** 				CurrReportIDInfo->ReportID = CurrStateTable->ReportID;
 158:../../protocol/lufa/LUFA-120730/LUFA/Drivers/USB/Class/Common/HIDParser.c **** 				break;
 159:../../protocol/lufa/LUFA-120730/LUFA/Drivers/USB/Class/Common/HIDParser.c **** 			case HID_RI_USAGE(0):
 160:../../protocol/lufa/LUFA-120730/LUFA/Drivers/USB/Class/Common/HIDParser.c **** 				if (UsageListSize == HID_USAGE_STACK_DEPTH)
 161:../../protocol/lufa/LUFA-120730/LUFA/Drivers/USB/Class/Common/HIDParser.c **** 				  return HID_PARSE_UsageListOverflow;
 162:../../protocol/lufa/LUFA-120730/LUFA/Drivers/USB/Class/Common/HIDParser.c **** 
 163:../../protocol/lufa/LUFA-120730/LUFA/Drivers/USB/Class/Common/HIDParser.c **** 				UsageList[UsageListSize++] = ReportItemData;
 164:../../protocol/lufa/LUFA-120730/LUFA/Drivers/USB/Class/Common/HIDParser.c **** 				break;
 165:../../protocol/lufa/LUFA-120730/LUFA/Drivers/USB/Class/Common/HIDParser.c **** 			case HID_RI_USAGE_MINIMUM(0):
 166:../../protocol/lufa/LUFA-120730/LUFA/Drivers/USB/Class/Common/HIDParser.c **** 				UsageMinMax.Minimum = ReportItemData;
 167:../../protocol/lufa/LUFA-120730/LUFA/Drivers/USB/Class/Common/HIDParser.c **** 				break;
 168:../../protocol/lufa/LUFA-120730/LUFA/Drivers/USB/Class/Common/HIDParser.c **** 			case HID_RI_USAGE_MAXIMUM(0):
 169:../../protocol/lufa/LUFA-120730/LUFA/Drivers/USB/Class/Common/HIDParser.c **** 				UsageMinMax.Maximum = ReportItemData;
 170:../../protocol/lufa/LUFA-120730/LUFA/Drivers/USB/Class/Common/HIDParser.c **** 				break;
 171:../../protocol/lufa/LUFA-120730/LUFA/Drivers/USB/Class/Common/HIDParser.c **** 			case HID_RI_COLLECTION(0):
 172:../../protocol/lufa/LUFA-120730/LUFA/Drivers/USB/Class/Common/HIDParser.c **** 				if (CurrCollectionPath == NULL)
 173:../../protocol/lufa/LUFA-120730/LUFA/Drivers/USB/Class/Common/HIDParser.c **** 				{
 174:../../protocol/lufa/LUFA-120730/LUFA/Drivers/USB/Class/Common/HIDParser.c **** 					CurrCollectionPath = &ParserData->CollectionPaths[0];
 175:../../protocol/lufa/LUFA-120730/LUFA/Drivers/USB/Class/Common/HIDParser.c **** 				}
 176:../../protocol/lufa/LUFA-120730/LUFA/Drivers/USB/Class/Common/HIDParser.c **** 				else
 177:../../protocol/lufa/LUFA-120730/LUFA/Drivers/USB/Class/Common/HIDParser.c **** 				{
 178:../../protocol/lufa/LUFA-120730/LUFA/Drivers/USB/Class/Common/HIDParser.c **** 					HID_CollectionPath_t* ParentCollectionPath = CurrCollectionPath;
 179:../../protocol/lufa/LUFA-120730/LUFA/Drivers/USB/Class/Common/HIDParser.c **** 
 180:../../protocol/lufa/LUFA-120730/LUFA/Drivers/USB/Class/Common/HIDParser.c **** 					CurrCollectionPath = &ParserData->CollectionPaths[1];
 181:../../protocol/lufa/LUFA-120730/LUFA/Drivers/USB/Class/Common/HIDParser.c **** 
 182:../../protocol/lufa/LUFA-120730/LUFA/Drivers/USB/Class/Common/HIDParser.c **** 					while (CurrCollectionPath->Parent != NULL)
 183:../../protocol/lufa/LUFA-120730/LUFA/Drivers/USB/Class/Common/HIDParser.c **** 					{
 184:../../protocol/lufa/LUFA-120730/LUFA/Drivers/USB/Class/Common/HIDParser.c **** 						if (CurrCollectionPath == &ParserData->CollectionPaths[HID_MAX_COLLECTIONS - 1])
 185:../../protocol/lufa/LUFA-120730/LUFA/Drivers/USB/Class/Common/HIDParser.c **** 						  return HID_PARSE_InsufficientCollectionPaths;
 186:../../protocol/lufa/LUFA-120730/LUFA/Drivers/USB/Class/Common/HIDParser.c **** 
 187:../../protocol/lufa/LUFA-120730/LUFA/Drivers/USB/Class/Common/HIDParser.c **** 						CurrCollectionPath++;
 188:../../protocol/lufa/LUFA-120730/LUFA/Drivers/USB/Class/Common/HIDParser.c **** 					}
 189:../../protocol/lufa/LUFA-120730/LUFA/Drivers/USB/Class/Common/HIDParser.c **** 
 190:../../protocol/lufa/LUFA-120730/LUFA/Drivers/USB/Class/Common/HIDParser.c **** 					CurrCollectionPath->Parent = ParentCollectionPath;
 191:../../protocol/lufa/LUFA-120730/LUFA/Drivers/USB/Class/Common/HIDParser.c **** 				}
 192:../../protocol/lufa/LUFA-120730/LUFA/Drivers/USB/Class/Common/HIDParser.c **** 
 193:../../protocol/lufa/LUFA-120730/LUFA/Drivers/USB/Class/Common/HIDParser.c **** 				CurrCollectionPath->Type       = ReportItemData;
 194:../../protocol/lufa/LUFA-120730/LUFA/Drivers/USB/Class/Common/HIDParser.c **** 				CurrCollectionPath->Usage.Page = CurrStateTable->Attributes.Usage.Page;
 195:../../protocol/lufa/LUFA-120730/LUFA/Drivers/USB/Class/Common/HIDParser.c **** 
 196:../../protocol/lufa/LUFA-120730/LUFA/Drivers/USB/Class/Common/HIDParser.c **** 				if (UsageListSize)
 197:../../protocol/lufa/LUFA-120730/LUFA/Drivers/USB/Class/Common/HIDParser.c **** 				{
 198:../../protocol/lufa/LUFA-120730/LUFA/Drivers/USB/Class/Common/HIDParser.c **** 					CurrCollectionPath->Usage.Usage = UsageList[0];
 199:../../protocol/lufa/LUFA-120730/LUFA/Drivers/USB/Class/Common/HIDParser.c **** 
 200:../../protocol/lufa/LUFA-120730/LUFA/Drivers/USB/Class/Common/HIDParser.c **** 					for (uint8_t i = 0; i < UsageListSize; i++)
 201:../../protocol/lufa/LUFA-120730/LUFA/Drivers/USB/Class/Common/HIDParser.c **** 					  UsageList[i] = UsageList[i + 1];
 202:../../protocol/lufa/LUFA-120730/LUFA/Drivers/USB/Class/Common/HIDParser.c **** 
 203:../../protocol/lufa/LUFA-120730/LUFA/Drivers/USB/Class/Common/HIDParser.c **** 					UsageListSize--;
 204:../../protocol/lufa/LUFA-120730/LUFA/Drivers/USB/Class/Common/HIDParser.c **** 				}
 205:../../protocol/lufa/LUFA-120730/LUFA/Drivers/USB/Class/Common/HIDParser.c **** 				else if (UsageMinMax.Minimum <= UsageMinMax.Maximum)
 206:../../protocol/lufa/LUFA-120730/LUFA/Drivers/USB/Class/Common/HIDParser.c **** 				{
 207:../../protocol/lufa/LUFA-120730/LUFA/Drivers/USB/Class/Common/HIDParser.c **** 					CurrCollectionPath->Usage.Usage = UsageMinMax.Minimum++;
 208:../../protocol/lufa/LUFA-120730/LUFA/Drivers/USB/Class/Common/HIDParser.c **** 				}
 209:../../protocol/lufa/LUFA-120730/LUFA/Drivers/USB/Class/Common/HIDParser.c **** 
 210:../../protocol/lufa/LUFA-120730/LUFA/Drivers/USB/Class/Common/HIDParser.c **** 				break;
 211:../../protocol/lufa/LUFA-120730/LUFA/Drivers/USB/Class/Common/HIDParser.c **** 			case HID_RI_END_COLLECTION(0):
 212:../../protocol/lufa/LUFA-120730/LUFA/Drivers/USB/Class/Common/HIDParser.c **** 				if (CurrCollectionPath == NULL)
 213:../../protocol/lufa/LUFA-120730/LUFA/Drivers/USB/Class/Common/HIDParser.c **** 				  return HID_PARSE_UnexpectedEndCollection;
 214:../../protocol/lufa/LUFA-120730/LUFA/Drivers/USB/Class/Common/HIDParser.c **** 
 215:../../protocol/lufa/LUFA-120730/LUFA/Drivers/USB/Class/Common/HIDParser.c **** 				CurrCollectionPath = CurrCollectionPath->Parent;
 216:../../protocol/lufa/LUFA-120730/LUFA/Drivers/USB/Class/Common/HIDParser.c **** 				break;
 217:../../protocol/lufa/LUFA-120730/LUFA/Drivers/USB/Class/Common/HIDParser.c **** 			case HID_RI_INPUT(0):
 218:../../protocol/lufa/LUFA-120730/LUFA/Drivers/USB/Class/Common/HIDParser.c **** 			case HID_RI_OUTPUT(0):
 219:../../protocol/lufa/LUFA-120730/LUFA/Drivers/USB/Class/Common/HIDParser.c **** 			case HID_RI_FEATURE(0):
 220:../../protocol/lufa/LUFA-120730/LUFA/Drivers/USB/Class/Common/HIDParser.c **** 				for (uint8_t ReportItemNum = 0; ReportItemNum < CurrStateTable->ReportCount; ReportItemNum++)
 221:../../protocol/lufa/LUFA-120730/LUFA/Drivers/USB/Class/Common/HIDParser.c **** 				{
 222:../../protocol/lufa/LUFA-120730/LUFA/Drivers/USB/Class/Common/HIDParser.c **** 					HID_ReportItem_t NewReportItem;
 223:../../protocol/lufa/LUFA-120730/LUFA/Drivers/USB/Class/Common/HIDParser.c **** 
 224:../../protocol/lufa/LUFA-120730/LUFA/Drivers/USB/Class/Common/HIDParser.c **** 					memcpy(&NewReportItem.Attributes,
 225:../../protocol/lufa/LUFA-120730/LUFA/Drivers/USB/Class/Common/HIDParser.c **** 					       &CurrStateTable->Attributes,
 226:../../protocol/lufa/LUFA-120730/LUFA/Drivers/USB/Class/Common/HIDParser.c **** 					       sizeof(HID_ReportItem_Attributes_t));
 227:../../protocol/lufa/LUFA-120730/LUFA/Drivers/USB/Class/Common/HIDParser.c **** 
 228:../../protocol/lufa/LUFA-120730/LUFA/Drivers/USB/Class/Common/HIDParser.c **** 					NewReportItem.ItemFlags      = ReportItemData;
 229:../../protocol/lufa/LUFA-120730/LUFA/Drivers/USB/Class/Common/HIDParser.c **** 					NewReportItem.CollectionPath = CurrCollectionPath;
 230:../../protocol/lufa/LUFA-120730/LUFA/Drivers/USB/Class/Common/HIDParser.c **** 					NewReportItem.ReportID       = CurrStateTable->ReportID;
 231:../../protocol/lufa/LUFA-120730/LUFA/Drivers/USB/Class/Common/HIDParser.c **** 
 232:../../protocol/lufa/LUFA-120730/LUFA/Drivers/USB/Class/Common/HIDParser.c **** 					if (UsageListSize)
 233:../../protocol/lufa/LUFA-120730/LUFA/Drivers/USB/Class/Common/HIDParser.c **** 					{
 234:../../protocol/lufa/LUFA-120730/LUFA/Drivers/USB/Class/Common/HIDParser.c **** 						NewReportItem.Attributes.Usage.Usage = UsageList[0];
 235:../../protocol/lufa/LUFA-120730/LUFA/Drivers/USB/Class/Common/HIDParser.c **** 
 236:../../protocol/lufa/LUFA-120730/LUFA/Drivers/USB/Class/Common/HIDParser.c **** 						for (uint8_t i = 0; i < UsageListSize; i++)
 237:../../protocol/lufa/LUFA-120730/LUFA/Drivers/USB/Class/Common/HIDParser.c **** 						  UsageList[i] = UsageList[i + 1];
 238:../../protocol/lufa/LUFA-120730/LUFA/Drivers/USB/Class/Common/HIDParser.c **** 
 239:../../protocol/lufa/LUFA-120730/LUFA/Drivers/USB/Class/Common/HIDParser.c **** 						UsageListSize--;
 240:../../protocol/lufa/LUFA-120730/LUFA/Drivers/USB/Class/Common/HIDParser.c **** 					}
 241:../../protocol/lufa/LUFA-120730/LUFA/Drivers/USB/Class/Common/HIDParser.c **** 					else if (UsageMinMax.Minimum <= UsageMinMax.Maximum)
 242:../../protocol/lufa/LUFA-120730/LUFA/Drivers/USB/Class/Common/HIDParser.c **** 					{
 243:../../protocol/lufa/LUFA-120730/LUFA/Drivers/USB/Class/Common/HIDParser.c **** 						NewReportItem.Attributes.Usage.Usage = UsageMinMax.Minimum++;
 244:../../protocol/lufa/LUFA-120730/LUFA/Drivers/USB/Class/Common/HIDParser.c **** 					}
 245:../../protocol/lufa/LUFA-120730/LUFA/Drivers/USB/Class/Common/HIDParser.c **** 
 246:../../protocol/lufa/LUFA-120730/LUFA/Drivers/USB/Class/Common/HIDParser.c **** 					uint8_t ItemTypeTag = (HIDReportItem & (HID_RI_TYPE_MASK | HID_RI_TAG_MASK));
 247:../../protocol/lufa/LUFA-120730/LUFA/Drivers/USB/Class/Common/HIDParser.c **** 
 248:../../protocol/lufa/LUFA-120730/LUFA/Drivers/USB/Class/Common/HIDParser.c **** 					if (ItemTypeTag == HID_RI_INPUT(0))
 249:../../protocol/lufa/LUFA-120730/LUFA/Drivers/USB/Class/Common/HIDParser.c **** 					  NewReportItem.ItemType = HID_REPORT_ITEM_In;
 250:../../protocol/lufa/LUFA-120730/LUFA/Drivers/USB/Class/Common/HIDParser.c **** 					else if (ItemTypeTag == HID_RI_OUTPUT(0))
 251:../../protocol/lufa/LUFA-120730/LUFA/Drivers/USB/Class/Common/HIDParser.c **** 					  NewReportItem.ItemType = HID_REPORT_ITEM_Out;
 252:../../protocol/lufa/LUFA-120730/LUFA/Drivers/USB/Class/Common/HIDParser.c **** 					else
 253:../../protocol/lufa/LUFA-120730/LUFA/Drivers/USB/Class/Common/HIDParser.c **** 					  NewReportItem.ItemType = HID_REPORT_ITEM_Feature;
 254:../../protocol/lufa/LUFA-120730/LUFA/Drivers/USB/Class/Common/HIDParser.c **** 
 255:../../protocol/lufa/LUFA-120730/LUFA/Drivers/USB/Class/Common/HIDParser.c **** 					NewReportItem.BitOffset = CurrReportIDInfo->ReportSizeBits[NewReportItem.ItemType];
 256:../../protocol/lufa/LUFA-120730/LUFA/Drivers/USB/Class/Common/HIDParser.c **** 
 257:../../protocol/lufa/LUFA-120730/LUFA/Drivers/USB/Class/Common/HIDParser.c **** 					CurrReportIDInfo->ReportSizeBits[NewReportItem.ItemType] += CurrStateTable->Attributes.BitSize
 258:../../protocol/lufa/LUFA-120730/LUFA/Drivers/USB/Class/Common/HIDParser.c **** 
 259:../../protocol/lufa/LUFA-120730/LUFA/Drivers/USB/Class/Common/HIDParser.c **** 					ParserData->LargestReportSizeBits = MAX(ParserData->LargestReportSizeBits, CurrReportIDInfo->R
 176               		.loc 1 259 0
 177 0098 295B      		subi r18,-71
 178 009a 3F4F      		sbci r19,-1
 179 009c EF96      		adiw r28,125-62
 180 009e 3FAF      		std Y+63,r19
 181 00a0 2EAF      		std Y+62,r18
 182 00a2 EF97      		sbiw r28,125-62
 183               	.LBE4:
 184               	.LBE3:
 185               	.LBB9:
 184:../../protocol/lufa/LUFA-120730/LUFA/Drivers/USB/Class/Common/HIDParser.c **** 						  return HID_PARSE_InsufficientCollectionPaths;
 186               		.loc 1 184 0
 187 00a4 2E54      		subi r18,78
 188 00a6 3109      		sbc r19,__zero_reg__
 189 00a8 CB57      		subi r28,lo8(-133)
 190 00aa DF4F      		sbci r29,hi8(-133)
 191 00ac 3983      		std Y+1,r19
 192 00ae 2883      		st Y,r18
 193 00b0 C558      		subi r28,lo8(133)
 194 00b2 D040      		sbci r29,hi8(133)
 195               	.LBE9:
 132:../../protocol/lufa/LUFA-120730/LUFA/Drivers/USB/Class/Common/HIDParser.c **** 				{
 196               		.loc 1 132 0
 197 00b4 205B      		subi r18,-80
 198 00b6 3F4F      		sbci r19,-1
 199 00b8 C158      		subi r28,lo8(-127)
 200 00ba DF4F      		sbci r29,hi8(-127)
 201 00bc 3983      		std Y+1,r19
 202 00be 2883      		st Y,r18
 203 00c0 CF57      		subi r28,lo8(127)
 204 00c2 D040      		sbci r29,hi8(127)
 205               	.LBB10:
 136:../../protocol/lufa/LUFA-120730/LUFA/Drivers/USB/Class/Common/HIDParser.c **** 					{
 206               		.loc 1 136 0
 207 00c4 C957      		subi r28,lo8(-135)
 208 00c6 DF4F      		sbci r29,hi8(-135)
 209 00c8 B983      		std Y+1,r27
 210 00ca A883      		st Y,r26
 211 00cc C758      		subi r28,lo8(135)
 212 00ce D040      		sbci r29,hi8(135)
 213               	.LVL5:
 214               	.L2:
 215               	.LBE10:
 216               	.LBE2:
  53:../../protocol/lufa/LUFA-120730/LUFA/Drivers/USB/Class/Common/HIDParser.c **** 	{
 217               		.loc 1 53 0
 218 00d0 6115      		cp r22,__zero_reg__
 219 00d2 7105      		cpc r23,__zero_reg__
 220 00d4 01F4      		brne .+2
 221 00d6 00C0      		rjmp .L91
 222               	.LBB17:
  55:../../protocol/lufa/LUFA-120730/LUFA/Drivers/USB/Class/Common/HIDParser.c **** 		uint32_t ReportItemData = 0;
 223               		.loc 1 55 0
 224 00d8 D601      		movw r26,r12
 225 00da BC91      		ld r27,X
 226 00dc EB96      		adiw r28,122-63
 227 00de BFAF      		std Y+63,r27
 228 00e0 EB97      		sbiw r28,122-63
 229               	.LVL6:
  61:../../protocol/lufa/LUFA-120730/LUFA/Drivers/USB/Class/Common/HIDParser.c **** 		{
 230               		.loc 1 61 0
 231 00e2 8B2F      		mov r24,r27
 232 00e4 8370      		andi r24,lo8(3)
 233 00e6 8230      		cpi r24,lo8(2)
 234 00e8 01F0      		breq .L4
 235 00ea 8330      		cpi r24,lo8(3)
 236 00ec 01F0      		breq .L5
 237 00ee 8130      		cpi r24,lo8(1)
 238 00f0 01F0      		breq .L6
  58:../../protocol/lufa/LUFA-120730/LUFA/Drivers/USB/Class/Common/HIDParser.c **** 		ReportSize--;
 239               		.loc 1 58 0
 240 00f2 EFEF      		ldi r30,-1
 241 00f4 CE1A      		sub r12,r30
 242 00f6 DE0A      		sbc r13,r30
 243               	.LVL7:
  59:../../protocol/lufa/LUFA-120730/LUFA/Drivers/USB/Class/Common/HIDParser.c **** 
 244               		.loc 1 59 0
 245 00f8 6150      		subi r22,1
 246 00fa 7109      		sbc r23,__zero_reg__
 247               	.LVL8:
  56:../../protocol/lufa/LUFA-120730/LUFA/Drivers/USB/Class/Common/HIDParser.c **** 
 248               		.loc 1 56 0
 249 00fc 812C      		mov r8,__zero_reg__
 250 00fe 912C      		mov r9,__zero_reg__
 251 0100 5401      		movw r10,r8
 252 0102 00C0      		rjmp .L7
 253               	.LVL9:
 254               	.L5:
  64:../../protocol/lufa/LUFA-120730/LUFA/Drivers/USB/Class/Common/HIDParser.c **** 			                       ((uint16_t)ReportData[1] << 8)  | ReportData[0]);
 255               		.loc 1 64 0
 256 0104 D601      		movw r26,r12
 257 0106 1196      		adiw r26,1
 258 0108 8D90      		ld r8,X+
 259 010a 9D90      		ld r9,X+
 260 010c AD90      		ld r10,X+
 261 010e BC90      		ld r11,X
 262 0110 1497      		sbiw r26,1+3
 263               	.LVL10:
  66:../../protocol/lufa/LUFA-120730/LUFA/Drivers/USB/Class/Common/HIDParser.c **** 				ReportData     += 4;
 264               		.loc 1 66 0
 265 0112 6550      		subi r22,5
 266 0114 7109      		sbc r23,__zero_reg__
 267               	.LVL11:
  67:../../protocol/lufa/LUFA-120730/LUFA/Drivers/USB/Class/Common/HIDParser.c **** 				break;
 268               		.loc 1 67 0
 269 0116 B5E0      		ldi r27,5
 270 0118 CB0E      		add r12,r27
 271 011a D11C      		adc r13,__zero_reg__
 272               	.LVL12:
  68:../../protocol/lufa/LUFA-120730/LUFA/Drivers/USB/Class/Common/HIDParser.c **** 			case HID_RI_DATA_BITS_16:
 273               		.loc 1 68 0
 274 011c 00C0      		rjmp .L7
 275               	.LVL13:
 276               	.L4:
  70:../../protocol/lufa/LUFA-120730/LUFA/Drivers/USB/Class/Common/HIDParser.c **** 				ReportSize     -= 2;
 277               		.loc 1 70 0
 278 011e F601      		movw r30,r12
 279 0120 8180      		ldd r8,Z+1
 280 0122 9280      		ldd r9,Z+2
 281 0124 A12C      		mov r10,__zero_reg__
 282 0126 B12C      		mov r11,__zero_reg__
 283               	.LVL14:
  71:../../protocol/lufa/LUFA-120730/LUFA/Drivers/USB/Class/Common/HIDParser.c **** 				ReportData     += 2;
 284               		.loc 1 71 0
 285 0128 6350      		subi r22,3
 286 012a 7109      		sbc r23,__zero_reg__
 287               	.LVL15:
  72:../../protocol/lufa/LUFA-120730/LUFA/Drivers/USB/Class/Common/HIDParser.c **** 				break;
 288               		.loc 1 72 0
 289 012c F3E0      		ldi r31,3
 290 012e CF0E      		add r12,r31
 291 0130 D11C      		adc r13,__zero_reg__
 292               	.LVL16:
  73:../../protocol/lufa/LUFA-120730/LUFA/Drivers/USB/Class/Common/HIDParser.c **** 			case HID_RI_DATA_BITS_8:
 293               		.loc 1 73 0
 294 0132 00C0      		rjmp .L7
 295               	.LVL17:
 296               	.L6:
  75:../../protocol/lufa/LUFA-120730/LUFA/Drivers/USB/Class/Common/HIDParser.c **** 				ReportSize     -= 1;
 297               		.loc 1 75 0
 298 0134 D601      		movw r26,r12
 299 0136 1196      		adiw r26,1
 300 0138 8C90      		ld r8,X
 301 013a 912C      		mov r9,__zero_reg__
 302 013c A12C      		mov r10,__zero_reg__
 303 013e B12C      		mov r11,__zero_reg__
 304               	.LVL18:
  76:../../protocol/lufa/LUFA-120730/LUFA/Drivers/USB/Class/Common/HIDParser.c **** 				ReportData     += 1;
 305               		.loc 1 76 0
 306 0140 6250      		subi r22,2
 307 0142 7109      		sbc r23,__zero_reg__
 308               	.LVL19:
  77:../../protocol/lufa/LUFA-120730/LUFA/Drivers/USB/Class/Common/HIDParser.c **** 				break;
 309               		.loc 1 77 0
 310 0144 B2E0      		ldi r27,2
 311 0146 CB0E      		add r12,r27
 312 0148 D11C      		adc r13,__zero_reg__
 313               	.LVL20:
 314               	.L7:
 315 014a EB96      		adiw r28,122-63
 316 014c 1FAD      		ldd r17,Y+63
 317 014e EB97      		sbiw r28,122-63
 318 0150 1C7F      		andi r17,lo8(-4)
  81:../../protocol/lufa/LUFA-120730/LUFA/Drivers/USB/Class/Common/HIDParser.c **** 		{
 319               		.loc 1 81 0
 320 0152 1436      		cpi r17,lo8(100)
 321 0154 01F4      		brne .+2
 322 0156 00C0      		rjmp .L9
 323 0158 00F4      		brsh .L10
 324 015a 1432      		cpi r17,lo8(36)
 325 015c 01F4      		brne .+2
 326 015e 00C0      		rjmp .L11
 327 0160 00F4      		brsh .L12
 328 0162 1830      		cpi r17,lo8(8)
 329 0164 01F4      		brne .+2
 330 0166 00C0      		rjmp .L13
 331 0168 00F4      		brsh .L14
 332 016a 1430      		cpi r17,lo8(4)
 333 016c 01F0      		breq .+2
 334 016e 00C0      		rjmp .L17
 103:../../protocol/lufa/LUFA-120730/LUFA/Drivers/USB/Class/Common/HIDParser.c **** 				break;
 335               		.loc 1 103 0
 336 0170 D701      		movw r26,r14
 337               	.LVL21:
 338 0172 1296      		adiw r26,1+1
 339 0174 9C92      		st X,r9
 340 0176 8E92      		st -X,r8
 341 0178 1197      		sbiw r26,1
 104:../../protocol/lufa/LUFA-120730/LUFA/Drivers/USB/Class/Common/HIDParser.c **** 			case HID_RI_LOGICAL_MINIMUM(0):
 342               		.loc 1 104 0
 343 017a 00C0      		rjmp .L17
 344               	.LVL22:
 345               	.L14:
  81:../../protocol/lufa/LUFA-120730/LUFA/Drivers/USB/Class/Common/HIDParser.c **** 		{
 346               		.loc 1 81 0
 347 017c 1431      		cpi r17,lo8(20)
 348 017e 01F4      		brne .+2
 349 0180 00C0      		rjmp .L16
 350 0182 1831      		cpi r17,lo8(24)
 351 0184 01F0      		breq .+2
 352 0186 00C0      		rjmp .L17
 166:../../protocol/lufa/LUFA-120730/LUFA/Drivers/USB/Class/Common/HIDParser.c **** 				break;
 353               		.loc 1 166 0
 354 0188 2401      		movw r4,r8
 355 018a 3501      		movw r6,r10
 356               	.LVL23:
 357 018c 00C0      		rjmp .L17
 358               	.LVL24:
 359               	.L12:
  81:../../protocol/lufa/LUFA-120730/LUFA/Drivers/USB/Class/Common/HIDParser.c **** 		{
 360               		.loc 1 81 0
 361 018e 1433      		cpi r17,lo8(52)
 362 0190 01F4      		brne .+2
 363 0192 00C0      		rjmp .L18
 364 0194 00F4      		brsh .L19
 365 0196 1832      		cpi r17,lo8(40)
 366 0198 01F0      		breq .+2
 367 019a 00C0      		rjmp .L17
 368               	.LVL25:
 169:../../protocol/lufa/LUFA-120730/LUFA/Drivers/USB/Class/Common/HIDParser.c **** 				break;
 369               		.loc 1 169 0
 370 019c E996      		adiw r28,117-60
 371 019e 8CAE      		std Y+60,r8
 372 01a0 9DAE      		std Y+61,r9
 373 01a2 AEAE      		std Y+62,r10
 374 01a4 BFAE      		std Y+63,r11
 375 01a6 E997      		sbiw r28,117-60
 170:../../protocol/lufa/LUFA-120730/LUFA/Drivers/USB/Class/Common/HIDParser.c **** 			case HID_RI_COLLECTION(0):
 376               		.loc 1 170 0
 377 01a8 00C0      		rjmp .L17
 378               	.LVL26:
 379               	.L19:
  81:../../protocol/lufa/LUFA-120730/LUFA/Drivers/USB/Class/Common/HIDParser.c **** 		{
 380               		.loc 1 81 0
 381 01aa 1434      		cpi r17,lo8(68)
 382 01ac 01F4      		brne .+2
 383 01ae 00C0      		rjmp .L21
 384 01b0 1435      		cpi r17,lo8(84)
 385 01b2 01F0      		breq .+2
 386 01b4 00C0      		rjmp .L17
 118:../../protocol/lufa/LUFA-120730/LUFA/Drivers/USB/Class/Common/HIDParser.c **** 				break;
 387               		.loc 1 118 0
 388 01b6 F701      		movw r30,r14
 389 01b8 8186      		std Z+9,r8
 390               	.LVL27:
 119:../../protocol/lufa/LUFA-120730/LUFA/Drivers/USB/Class/Common/HIDParser.c **** 			case HID_RI_UNIT(0):
 391               		.loc 1 119 0
 392 01ba 00C0      		rjmp .L17
 393               	.LVL28:
 394               	.L10:
  81:../../protocol/lufa/LUFA-120730/LUFA/Drivers/USB/Class/Common/HIDParser.c **** 		{
 395               		.loc 1 81 0
 396 01bc 1439      		cpi r17,lo8(-108)
 397 01be 01F4      		brne .+2
 398 01c0 00C0      		rjmp .L23
 399 01c2 00F4      		brsh .L24
 400 01c4 1038      		cpi r17,lo8(-128)
 401 01c6 01F0      		breq .L25
 402 01c8 00F4      		brsh .L26
 403 01ca 1437      		cpi r17,lo8(116)
 404 01cc 01F0      		breq .+2
 405 01ce 00C0      		rjmp .L17
 124:../../protocol/lufa/LUFA-120730/LUFA/Drivers/USB/Class/Common/HIDParser.c **** 				break;
 406               		.loc 1 124 0
 407 01d0 F701      		movw r30,r14
 408 01d2 8082      		st Z,r8
 409               	.LVL29:
 125:../../protocol/lufa/LUFA-120730/LUFA/Drivers/USB/Class/Common/HIDParser.c **** 			case HID_RI_REPORT_COUNT(0):
 410               		.loc 1 125 0
 411 01d4 00C0      		rjmp .L17
 412               	.LVL30:
 413               	.L26:
  81:../../protocol/lufa/LUFA-120730/LUFA/Drivers/USB/Class/Common/HIDParser.c **** 		{
 414               		.loc 1 81 0
 415 01d6 1438      		cpi r17,lo8(-124)
 416 01d8 01F4      		brne .+2
 417 01da 00C0      		rjmp .L28
 418 01dc 1039      		cpi r17,lo8(-112)
 419 01de 01F0      		breq .L25
 420 01e0 00C0      		rjmp .L17
 421               	.L24:
 422 01e2 103B      		cpi r17,lo8(-80)
 423 01e4 01F0      		breq .L25
 424 01e6 00F4      		brsh .L29
 425 01e8 103A      		cpi r17,lo8(-96)
 426 01ea 01F4      		brne .+2
 427 01ec 00C0      		rjmp .L30
 428 01ee 143A      		cpi r17,lo8(-92)
 429 01f0 01F0      		breq .L31
 430 01f2 00C0      		rjmp .L17
 431               	.L29:
 432 01f4 143B      		cpi r17,lo8(-76)
 433 01f6 01F0      		breq .L32
 434 01f8 103C      		cpi r17,lo8(-64)
 435 01fa 01F4      		brne .+2
 436 01fc 00C0      		rjmp .L33
 437 01fe 00C0      		rjmp .L17
 438               	.L25:
  81:../../protocol/lufa/LUFA-120730/LUFA/Drivers/USB/Class/Common/HIDParser.c **** 		{
 439               		.loc 1 81 0 is_stmt 0 discriminator 1
 440 0200 EA96      		adiw r28,121-63
 441 0202 1FAE      		std Y+63,__zero_reg__
 442 0204 EA97      		sbiw r28,121-63
 443               	.LBB11:
 444               	.LBB6:
 260:../../protocol/lufa/LUFA-120730/LUFA/Drivers/USB/Class/Common/HIDParser.c **** 
 261:../../protocol/lufa/LUFA-120730/LUFA/Drivers/USB/Class/Common/HIDParser.c **** 					if (ParserData->TotalReportItems == HID_MAX_REPORTITEMS)
 262:../../protocol/lufa/LUFA-120730/LUFA/Drivers/USB/Class/Common/HIDParser.c **** 					  return HID_PARSE_InsufficientReportItems;
 263:../../protocol/lufa/LUFA-120730/LUFA/Drivers/USB/Class/Common/HIDParser.c **** 
 264:../../protocol/lufa/LUFA-120730/LUFA/Drivers/USB/Class/Common/HIDParser.c **** 					memcpy(&ParserData->ReportItems[ParserData->TotalReportItems],
 265:../../protocol/lufa/LUFA-120730/LUFA/Drivers/USB/Class/Common/HIDParser.c **** 					       &NewReportItem, sizeof(HID_ReportItem_t));
 266:../../protocol/lufa/LUFA-120730/LUFA/Drivers/USB/Class/Common/HIDParser.c **** 
 267:../../protocol/lufa/LUFA-120730/LUFA/Drivers/USB/Class/Common/HIDParser.c **** 					if (!(ReportItemData & HID_IOF_CONSTANT) && CALLBACK_HIDParser_FilterHIDReportItem(&NewReportI
 445               		.loc 1 267 0 is_stmt 1 discriminator 1
 446 0206 D501      		movw r26,r10
 447 0208 C401      		movw r24,r8
 448 020a 8170      		andi r24,1
 449 020c 9927      		clr r25
 450 020e AA27      		clr r26
 451 0210 BB27      		clr r27
 452 0212 CF57      		subi r28,lo8(-129)
 453 0214 DF4F      		sbci r29,hi8(-129)
 454 0216 8883      		st Y,r24
 455 0218 9983      		std Y+1,r25
 456 021a AA83      		std Y+2,r26
 457 021c BB83      		std Y+3,r27
 458 021e C158      		subi r28,lo8(129)
 459 0220 D040      		sbci r29,hi8(129)
 460 0222 00C0      		rjmp .L34
 461               	.L31:
 462               	.LBE6:
 463               	.LBE11:
  84:../../protocol/lufa/LUFA-120730/LUFA/Drivers/USB/Class/Common/HIDParser.c **** 				  return HID_PARSE_HIDStackOverflow;
 464               		.loc 1 84 0
 465 0224 CE01      		movw r24,r28
 466 0226 4D96      		adiw r24,29
 467 0228 E816      		cp r14,r24
 468 022a F906      		cpc r15,r25
 469 022c 01F4      		brne .+2
 470 022e 00C0      		rjmp .L62
  87:../../protocol/lufa/LUFA-120730/LUFA/Drivers/USB/Class/Common/HIDParser.c **** 				       CurrStateTable,
 471               		.loc 1 87 0
 472 0230 C701      		movw r24,r14
 473 0232 4C96      		adiw r24,28
 474 0234 2AE2      		ldi r18,lo8(42)
 475 0236 F701      		movw r30,r14
 476 0238 DC01      		movw r26,r24
 477               	.LVL31:
 478               		0:
 479 023a 0190      		ld r0,Z+
 480 023c 0D92      		st X+,r0
 481 023e 2A95      		dec r18
 482 0240 01F4      		brne 0b
 483               	.LVL32:
  91:../../protocol/lufa/LUFA-120730/LUFA/Drivers/USB/Class/Common/HIDParser.c **** 				break;
 484               		.loc 1 91 0
 485 0242 7C01      		movw r14,r24
  92:../../protocol/lufa/LUFA-120730/LUFA/Drivers/USB/Class/Common/HIDParser.c **** 			case HID_RI_POP(0):
 486               		.loc 1 92 0
 487 0244 00C0      		rjmp .L17
 488               	.LVL33:
 489               	.L32:
  94:../../protocol/lufa/LUFA-120730/LUFA/Drivers/USB/Class/Common/HIDParser.c **** 				  return HID_PARSE_HIDStackUnderflow;
 490               		.loc 1 94 0
 491 0246 CE01      		movw r24,r28
 492 0248 0196      		adiw r24,1
 493 024a 8E15      		cp r24,r14
 494 024c 9F05      		cpc r25,r15
 495 024e 01F4      		brne .+2
 496 0250 00C0      		rjmp .L63
  97:../../protocol/lufa/LUFA-120730/LUFA/Drivers/USB/Class/Common/HIDParser.c **** 				break;
 497               		.loc 1 97 0
 498 0252 9CE1      		ldi r25,28
 499 0254 E91A      		sub r14,r25
 500 0256 F108      		sbc r15,__zero_reg__
 501               	.LVL34:
  98:../../protocol/lufa/LUFA-120730/LUFA/Drivers/USB/Class/Common/HIDParser.c **** 			case HID_RI_USAGE_PAGE(0):
 502               		.loc 1 98 0
 503 0258 00C0      		rjmp .L17
 504               	.L16:
 106:../../protocol/lufa/LUFA-120730/LUFA/Drivers/USB/Class/Common/HIDParser.c **** 				break;
 505               		.loc 1 106 0
 506 025a F701      		movw r30,r14
 507 025c 8286      		std Z+10,r8
 508 025e 9386      		std Z+11,r9
 509 0260 A486      		std Z+12,r10
 510 0262 B586      		std Z+13,r11
 107:../../protocol/lufa/LUFA-120730/LUFA/Drivers/USB/Class/Common/HIDParser.c **** 			case HID_RI_LOGICAL_MAXIMUM(0):
 511               		.loc 1 107 0
 512 0264 00C0      		rjmp .L17
 513               	.LVL35:
 514               	.L11:
 109:../../protocol/lufa/LUFA-120730/LUFA/Drivers/USB/Class/Common/HIDParser.c **** 				break;
 515               		.loc 1 109 0
 516 0266 D701      		movw r26,r14
 517               	.LVL36:
 518 0268 1E96      		adiw r26,14
 519 026a 8D92      		st X+,r8
 520 026c 9D92      		st X+,r9
 521 026e AD92      		st X+,r10
 522 0270 BC92      		st X,r11
 523 0272 5197      		sbiw r26,14+3
 110:../../protocol/lufa/LUFA-120730/LUFA/Drivers/USB/Class/Common/HIDParser.c **** 			case HID_RI_PHYSICAL_MINIMUM(0):
 524               		.loc 1 110 0
 525 0274 00C0      		rjmp .L17
 526               	.LVL37:
 527               	.L18:
 112:../../protocol/lufa/LUFA-120730/LUFA/Drivers/USB/Class/Common/HIDParser.c **** 				break;
 528               		.loc 1 112 0
 529 0276 F701      		movw r30,r14
 530 0278 828A      		std Z+18,r8
 531 027a 938A      		std Z+19,r9
 532 027c A48A      		std Z+20,r10
 533 027e B58A      		std Z+21,r11
 534               	.LVL38:
 113:../../protocol/lufa/LUFA-120730/LUFA/Drivers/USB/Class/Common/HIDParser.c **** 			case HID_RI_PHYSICAL_MAXIMUM(0):
 535               		.loc 1 113 0
 536 0280 00C0      		rjmp .L17
 537               	.LVL39:
 538               	.L21:
 115:../../protocol/lufa/LUFA-120730/LUFA/Drivers/USB/Class/Common/HIDParser.c **** 				break;
 539               		.loc 1 115 0
 540 0282 D701      		movw r26,r14
 541               	.LVL40:
 542 0284 5696      		adiw r26,22
 543 0286 8D92      		st X+,r8
 544 0288 9D92      		st X+,r9
 545 028a AD92      		st X+,r10
 546 028c BC92      		st X,r11
 547 028e 5997      		sbiw r26,22+3
 116:../../protocol/lufa/LUFA-120730/LUFA/Drivers/USB/Class/Common/HIDParser.c **** 			case HID_RI_UNIT_EXPONENT(0):
 548               		.loc 1 116 0
 549 0290 00C0      		rjmp .L17
 550               	.LVL41:
 551               	.L9:
 121:../../protocol/lufa/LUFA-120730/LUFA/Drivers/USB/Class/Common/HIDParser.c **** 				break;
 552               		.loc 1 121 0
 553 0292 D701      		movw r26,r14
 554               	.LVL42:
 555 0294 1596      		adiw r26,5
 556 0296 8D92      		st X+,r8
 557 0298 9D92      		st X+,r9
 558 029a AD92      		st X+,r10
 559 029c BC92      		st X,r11
 560 029e 1897      		sbiw r26,5+3
 122:../../protocol/lufa/LUFA-120730/LUFA/Drivers/USB/Class/Common/HIDParser.c **** 			case HID_RI_REPORT_SIZE(0):
 561               		.loc 1 122 0
 562 02a0 00C0      		rjmp .L17
 563               	.LVL43:
 564               	.L23:
 127:../../protocol/lufa/LUFA-120730/LUFA/Drivers/USB/Class/Common/HIDParser.c **** 				break;
 565               		.loc 1 127 0
 566 02a2 D701      		movw r26,r14
 567               	.LVL44:
 568 02a4 5A96      		adiw r26,26
 569 02a6 8C92      		st X,r8
 128:../../protocol/lufa/LUFA-120730/LUFA/Drivers/USB/Class/Common/HIDParser.c **** 			case HID_RI_REPORT_ID(0):
 570               		.loc 1 128 0
 571 02a8 00C0      		rjmp .L17
 572               	.LVL45:
 573               	.L28:
 130:../../protocol/lufa/LUFA-120730/LUFA/Drivers/USB/Class/Common/HIDParser.c **** 
 574               		.loc 1 130 0
 575 02aa A82D      		mov r26,r8
 576               	.LVL46:
 577 02ac F701      		movw r30,r14
 578 02ae 838E      		std Z+27,r8
 132:../../protocol/lufa/LUFA-120730/LUFA/Drivers/USB/Class/Common/HIDParser.c **** 				{
 579               		.loc 1 132 0
 580 02b0 C158      		subi r28,lo8(-127)
 581 02b2 DF4F      		sbci r29,hi8(-127)
 582 02b4 E881      		ld r30,Y
 583 02b6 F981      		ldd r31,Y+1
 584 02b8 CF57      		subi r28,lo8(127)
 585 02ba D040      		sbci r29,hi8(127)
 586 02bc 8081      		ld r24,Z
 587 02be 8823      		tst r24
 588 02c0 01F0      		breq .L36
 589               	.LBB12:
 136:../../protocol/lufa/LUFA-120730/LUFA/Drivers/USB/Class/Common/HIDParser.c **** 					{
 590               		.loc 1 136 0
 591 02c2 C957      		subi r28,lo8(-135)
 592 02c4 DF4F      		sbci r29,hi8(-135)
 593 02c6 E881      		ld r30,Y
 594 02c8 F981      		ldd r31,Y+1
 595 02ca C758      		subi r28,lo8(135)
 596 02cc D040      		sbci r29,hi8(135)
 597 02ce 1081      		ld r17,Z
 598 02d0 FA01      		movw r30,r20
 599 02d2 E057      		subi r30,112
 600 02d4 FC4F      		sbci r31,-4
 601 02d6 80E0      		ldi r24,0
 602 02d8 90E0      		ldi r25,0
 603               	.L37:
 604               	.LVL47:
 136:../../protocol/lufa/LUFA-120730/LUFA/Drivers/USB/Class/Common/HIDParser.c **** 					{
 605               		.loc 1 136 0 is_stmt 0 discriminator 1
 606 02da 8117      		cp r24,r17
 607 02dc 00F4      		brsh .L92
 138:../../protocol/lufa/LUFA-120730/LUFA/Drivers/USB/Class/Common/HIDParser.c **** 						{
 608               		.loc 1 138 0 is_stmt 1
 609 02de 9C01      		movw r18,r24
 610 02e0 B081      		ld r27,Z
 611 02e2 0196      		adiw r24,1
 612               	.LVL48:
 613 02e4 3796      		adiw r30,7
 614 02e6 AB13      		cpse r26,r27
 615 02e8 00C0      		rjmp .L37
 140:../../protocol/lufa/LUFA-120730/LUFA/Drivers/USB/Class/Common/HIDParser.c **** 							break;
 616               		.loc 1 140 0
 617 02ea E7E0      		ldi r30,lo8(7)
 618 02ec E29F      		mul r30,r18
 619 02ee C001      		movw r24,r0
 620 02f0 E39F      		mul r30,r19
 621 02f2 900D      		add r25,r0
 622 02f4 1124      		clr __zero_reg__
 623 02f6 8057      		subi r24,112
 624 02f8 9C4F      		sbci r25,-4
 625 02fa 9A01      		movw r18,r20
 626               	.LVL49:
 627 02fc 280F      		add r18,r24
 628 02fe 391F      		adc r19,r25
 629 0300 E596      		adiw r28,115-62
 630 0302 3FAF      		std Y+63,r19
 631 0304 2EAF      		std Y+62,r18
 632 0306 E597      		sbiw r28,115-62
 633               	.LVL50:
 634 0308 00C0      		rjmp .L36
 635               	.LVL51:
 636               	.L92:
 637               	.LBE12:
 147:../../protocol/lufa/LUFA-120730/LUFA/Drivers/USB/Class/Common/HIDParser.c **** 						  return HID_PARSE_InsufficientReportIDItems;
 638               		.loc 1 147 0
 639 030a 1A30      		cpi r17,lo8(10)
 640 030c 01F4      		brne .+2
 641 030e 00C0      		rjmp .L93
 150:../../protocol/lufa/LUFA-120730/LUFA/Drivers/USB/Class/Common/HIDParser.c **** 						memset(CurrReportIDInfo, 0x00, sizeof(HID_ReportSizeInfo_t));
 642               		.loc 1 150 0
 643 0310 81E0      		ldi r24,lo8(1)
 644               	.LVL52:
 645 0312 810F      		add r24,r17
 646 0314 ED96      		adiw r28,123-62
 647 0316 AEAD      		ldd r26,Y+62
 648 0318 BFAD      		ldd r27,Y+63
 649 031a ED97      		sbiw r28,123-62
 650 031c 8C93      		st X,r24
 651 031e 87E0      		ldi r24,lo8(7)
 652 0320 9A01      		movw r18,r20
 653 0322 819F      		mul r24,r17
 654 0324 200D      		add r18,r0
 655 0326 311D      		adc r19,r1
 656 0328 1124      		clr __zero_reg__
 657 032a F901      		movw r30,r18
 658 032c E057      		subi r30,112
 659 032e FC4F      		sbci r31,-4
 660 0330 E596      		adiw r28,115-62
 661 0332 FFAF      		std Y+63,r31
 662 0334 EEAF      		std Y+62,r30
 663 0336 E597      		sbiw r28,115-62
 664               	.LVL53:
 151:../../protocol/lufa/LUFA-120730/LUFA/Drivers/USB/Class/Common/HIDParser.c **** 					}
 665               		.loc 1 151 0
 666               		0:
 667 0338 1192      		st Z+,__zero_reg__
 668 033a 8A95      		dec r24
 669 033c 01F4      		brne 0b
 670               	.LVL54:
 671               	.L36:
 155:../../protocol/lufa/LUFA-120730/LUFA/Drivers/USB/Class/Common/HIDParser.c **** 
 672               		.loc 1 155 0
 673 033e 81E0      		ldi r24,lo8(1)
 674 0340 C158      		subi r28,lo8(-127)
 675 0342 DF4F      		sbci r29,hi8(-127)
 676 0344 A881      		ld r26,Y
 677 0346 B981      		ldd r27,Y+1
 678 0348 CF57      		subi r28,lo8(127)
 679 034a D040      		sbci r29,hi8(127)
 680 034c 8C93      		st X,r24
 157:../../protocol/lufa/LUFA-120730/LUFA/Drivers/USB/Class/Common/HIDParser.c **** 				break;
 681               		.loc 1 157 0
 682 034e F701      		movw r30,r14
 683 0350 838D      		ldd r24,Z+27
 684 0352 E596      		adiw r28,115-62
 685 0354 AEAD      		ldd r26,Y+62
 686 0356 BFAD      		ldd r27,Y+63
 687 0358 E597      		sbiw r28,115-62
 688 035a 8C93      		st X,r24
 158:../../protocol/lufa/LUFA-120730/LUFA/Drivers/USB/Class/Common/HIDParser.c **** 			case HID_RI_USAGE(0):
 689               		.loc 1 158 0
 690 035c 00C0      		rjmp .L17
 691               	.LVL55:
 692               	.L13:
 160:../../protocol/lufa/LUFA-120730/LUFA/Drivers/USB/Class/Common/HIDParser.c **** 				  return HID_PARSE_UsageListOverflow;
 693               		.loc 1 160 0
 694 035e 0830      		cpi r16,lo8(8)
 695 0360 01F4      		brne .+2
 696 0362 00C0      		rjmp .L64
 697               	.LVL56:
 163:../../protocol/lufa/LUFA-120730/LUFA/Drivers/USB/Class/Common/HIDParser.c **** 				break;
 698               		.loc 1 163 0
 699 0364 FE01      		movw r30,r28
 700 0366 ED59      		subi r30,-99
 701 0368 FF4F      		sbci r31,-1
 702 036a E00F      		add r30,r16
 703 036c F11D      		adc r31,__zero_reg__
 704 036e E00F      		add r30,r16
 705 0370 F11D      		adc r31,__zero_reg__
 706 0372 9182      		std Z+1,r9
 707 0374 8082      		st Z,r8
 708               	.LVL57:
 709 0376 0F5F      		subi r16,lo8(-(1))
 710               	.LVL58:
 164:../../protocol/lufa/LUFA-120730/LUFA/Drivers/USB/Class/Common/HIDParser.c **** 			case HID_RI_USAGE_MINIMUM(0):
 711               		.loc 1 164 0
 712 0378 00C0      		rjmp .L17
 713               	.LVL59:
 714               	.L30:
 172:../../protocol/lufa/LUFA-120730/LUFA/Drivers/USB/Class/Common/HIDParser.c **** 				{
 715               		.loc 1 172 0
 716 037a 2114      		cp r2,__zero_reg__
 717 037c 3104      		cpc r3,__zero_reg__
 718 037e 01F4      		brne .L40
 174:../../protocol/lufa/LUFA-120730/LUFA/Drivers/USB/Class/Common/HIDParser.c **** 				}
 719               		.loc 1 174 0
 720 0380 1A01      		movw r2,r20
 721               	.LVL60:
 722 0382 B7EB      		ldi r27,-73
 723 0384 2B1A      		sub r2,r27
 724 0386 BCEF      		ldi r27,-4
 725 0388 3B0A      		sbc r3,r27
 726               	.LVL61:
 727 038a 00C0      		rjmp .L41
 728               	.L40:
 729               	.LVL62:
 730               	.LBB13:
 180:../../protocol/lufa/LUFA-120730/LUFA/Drivers/USB/Class/Common/HIDParser.c **** 
 731               		.loc 1 180 0
 732 038c FA01      		movw r30,r20
 733 038e E05B      		subi r30,-80
 734 0390 FC4F      		sbci r31,-4
 735               	.LVL63:
 736               	.L42:
 182:../../protocol/lufa/LUFA-120730/LUFA/Drivers/USB/Class/Common/HIDParser.c **** 					{
 737               		.loc 1 182 0
 738 0392 8581      		ldd r24,Z+5
 739 0394 9681      		ldd r25,Z+6
 740 0396 892B      		or r24,r25
 741 0398 01F0      		breq .L94
 184:../../protocol/lufa/LUFA-120730/LUFA/Drivers/USB/Class/Common/HIDParser.c **** 						  return HID_PARSE_InsufficientCollectionPaths;
 742               		.loc 1 184 0
 743 039a CB57      		subi r28,lo8(-133)
 744 039c DF4F      		sbci r29,hi8(-133)
 745 039e 2881      		ld r18,Y
 746 03a0 3981      		ldd r19,Y+1
 747 03a2 C558      		subi r28,lo8(133)
 748 03a4 D040      		sbci r29,hi8(133)
 749 03a6 E217      		cp r30,r18
 750 03a8 F307      		cpc r31,r19
 751 03aa 01F4      		brne .+2
 752 03ac 00C0      		rjmp .L65
 187:../../protocol/lufa/LUFA-120730/LUFA/Drivers/USB/Class/Common/HIDParser.c **** 					}
 753               		.loc 1 187 0
 754 03ae 3796      		adiw r30,7
 755               	.LVL64:
 756 03b0 00C0      		rjmp .L42
 757               	.L94:
 190:../../protocol/lufa/LUFA-120730/LUFA/Drivers/USB/Class/Common/HIDParser.c **** 				}
 758               		.loc 1 190 0
 759 03b2 3682      		std Z+6,r3
 760 03b4 2582      		std Z+5,r2
 761               	.LVL65:
 762 03b6 1F01      		movw r2,r30
 763               	.LVL66:
 764               	.L41:
 765               	.LBE13:
 193:../../protocol/lufa/LUFA-120730/LUFA/Drivers/USB/Class/Common/HIDParser.c **** 				CurrCollectionPath->Usage.Page = CurrStateTable->Attributes.Usage.Page;
 766               		.loc 1 193 0
 767 03b8 D101      		movw r26,r2
 768 03ba 8C92      		st X,r8
 194:../../protocol/lufa/LUFA-120730/LUFA/Drivers/USB/Class/Common/HIDParser.c **** 
 769               		.loc 1 194 0
 770 03bc F701      		movw r30,r14
 771 03be 8181      		ldd r24,Z+1
 772 03c0 9281      		ldd r25,Z+2
 773 03c2 1296      		adiw r26,1+1
 774 03c4 9C93      		st X,r25
 775 03c6 8E93      		st -X,r24
 776 03c8 1197      		sbiw r26,1
 196:../../protocol/lufa/LUFA-120730/LUFA/Drivers/USB/Class/Common/HIDParser.c **** 				{
 777               		.loc 1 196 0
 778 03ca 0023      		tst r16
 779 03cc 01F0      		breq .L44
 198:../../protocol/lufa/LUFA-120730/LUFA/Drivers/USB/Class/Common/HIDParser.c **** 
 780               		.loc 1 198 0
 781 03ce FE01      		movw r30,r28
 782 03d0 ED59      		subi r30,-99
 783 03d2 FF4F      		sbci r31,-1
 784 03d4 8191      		ld r24,Z+
 785 03d6 9191      		ld r25,Z+
 786 03d8 1496      		adiw r26,3+1
 787 03da 9C93      		st X,r25
 788 03dc 8E93      		st -X,r24
 789 03de 1397      		sbiw r26,3
 790               	.LVL67:
 791 03e0 DE01      		movw r26,r28
 792 03e2 AD59      		subi r26,-99
 793 03e4 BF4F      		sbci r27,-1
 794               	.LBB14:
 200:../../protocol/lufa/LUFA-120730/LUFA/Drivers/USB/Class/Common/HIDParser.c **** 					  UsageList[i] = UsageList[i + 1];
 795               		.loc 1 200 0
 796 03e6 20E0      		ldi r18,0
 797               	.LVL68:
 798               	.L45:
 201:../../protocol/lufa/LUFA-120730/LUFA/Drivers/USB/Class/Common/HIDParser.c **** 
 799               		.loc 1 201 0 discriminator 3
 800 03e8 8191      		ld r24,Z+
 801 03ea 9191      		ld r25,Z+
 802 03ec 8D93      		st X+,r24
 803 03ee 9D93      		st X+,r25
 200:../../protocol/lufa/LUFA-120730/LUFA/Drivers/USB/Class/Common/HIDParser.c **** 					  UsageList[i] = UsageList[i + 1];
 804               		.loc 1 200 0 discriminator 3
 805 03f0 2F5F      		subi r18,lo8(-(1))
 806               	.LVL69:
 807 03f2 0213      		cpse r16,r18
 808 03f4 00C0      		rjmp .L45
 809               	.LBE14:
 203:../../protocol/lufa/LUFA-120730/LUFA/Drivers/USB/Class/Common/HIDParser.c **** 				}
 810               		.loc 1 203 0
 811 03f6 0150      		subi r16,lo8(-(-1))
 812               	.LVL70:
 813 03f8 00C0      		rjmp .L17
 814               	.LVL71:
 815               	.L44:
 205:../../protocol/lufa/LUFA-120730/LUFA/Drivers/USB/Class/Common/HIDParser.c **** 				{
 816               		.loc 1 205 0
 817 03fa E996      		adiw r28,117-60
 818 03fc 8CAD      		ldd r24,Y+60
 819 03fe 9DAD      		ldd r25,Y+61
 820 0400 AEAD      		ldd r26,Y+62
 821 0402 BFAD      		ldd r27,Y+63
 822 0404 E997      		sbiw r28,117-60
 823 0406 8415      		cp r24,r4
 824 0408 9505      		cpc r25,r5
 825 040a A605      		cpc r26,r6
 826 040c B705      		cpc r27,r7
 827 040e 00F4      		brsh .+2
 828 0410 00C0      		rjmp .L17
 829               	.LVL72:
 207:../../protocol/lufa/LUFA-120730/LUFA/Drivers/USB/Class/Common/HIDParser.c **** 				}
 830               		.loc 1 207 0
 831 0412 D101      		movw r26,r2
 832 0414 1496      		adiw r26,3+1
 833 0416 5C92      		st X,r5
 834 0418 4E92      		st -X,r4
 835 041a 1397      		sbiw r26,3
 836 041c BFEF      		ldi r27,-1
 837 041e 4B1A      		sub r4,r27
 838 0420 5B0A      		sbc r5,r27
 839 0422 6B0A      		sbc r6,r27
 840 0424 7B0A      		sbc r7,r27
 841               	.LVL73:
 842 0426 00C0      		rjmp .L17
 843               	.LVL74:
 844               	.L33:
 212:../../protocol/lufa/LUFA-120730/LUFA/Drivers/USB/Class/Common/HIDParser.c **** 				  return HID_PARSE_UnexpectedEndCollection;
 845               		.loc 1 212 0
 846 0428 2114      		cp r2,__zero_reg__
 847 042a 3104      		cpc r3,__zero_reg__
 848 042c 01F4      		brne .+2
 849 042e 00C0      		rjmp .L66
 215:../../protocol/lufa/LUFA-120730/LUFA/Drivers/USB/Class/Common/HIDParser.c **** 				break;
 850               		.loc 1 215 0
 851 0430 F101      		movw r30,r2
 852 0432 2580      		ldd r2,Z+5
 853 0434 3680      		ldd r3,Z+6
 854               	.LVL75:
 216:../../protocol/lufa/LUFA-120730/LUFA/Drivers/USB/Class/Common/HIDParser.c **** 			case HID_RI_INPUT(0):
 855               		.loc 1 216 0
 856 0436 00C0      		rjmp .L17
 857               	.LVL76:
 858               	.L53:
 859               	.LBB15:
 860               	.LBB7:
 264:../../protocol/lufa/LUFA-120730/LUFA/Drivers/USB/Class/Common/HIDParser.c **** 					       &NewReportItem, sizeof(HID_ReportItem_t));
 861               		.loc 1 264 0
 862 0438 DA01      		movw r26,r20
 863 043a EAE2      		ldi r30,lo8(42)
 864 043c E89F      		mul r30,r24
 865 043e A00D      		add r26,r0
 866 0440 B11D      		adc r27,r1
 867 0442 1124      		clr __zero_reg__
 868 0444 1196      		adiw r26,1
 869 0446 FE01      		movw r30,r28
 870 0448 F996      		adiw r30,57
 871 044a 8AE2      		ldi r24,lo8(42)
 872               		0:
 873 044c 0190      		ld r0,Z+
 874 044e 0D92      		st X+,r0
 875 0450 8A95      		dec r24
 876 0452 01F4      		brne 0b
 877               		.loc 1 267 0
 878 0454 CF57      		subi r28,lo8(-129)
 879 0456 DF4F      		sbci r29,hi8(-129)
 880 0458 8881      		ld r24,Y
 881 045a 9981      		ldd r25,Y+1
 882 045c AA81      		ldd r26,Y+2
 883 045e BB81      		ldd r27,Y+3
 884 0460 C158      		subi r28,lo8(129)
 885 0462 D040      		sbci r29,hi8(129)
 886 0464 892B      		or r24,r25
 887 0466 8A2B      		or r24,r26
 888 0468 8B2B      		or r24,r27
 889 046a 01F4      		brne .+2
 890 046c 00C0      		rjmp .L95
 891               	.L55:
 892               	.LBE7:
 220:../../protocol/lufa/LUFA-120730/LUFA/Drivers/USB/Class/Common/HIDParser.c **** 				{
 893               		.loc 1 220 0
 894 046e EA96      		adiw r28,121-63
 895 0470 2FAD      		ldd r18,Y+63
 896 0472 EA97      		sbiw r28,121-63
 897 0474 2F5F      		subi r18,lo8(-(1))
 898 0476 EA96      		adiw r28,121-63
 899 0478 2FAF      		std Y+63,r18
 900 047a EA97      		sbiw r28,121-63
 901               	.LVL77:
 902               	.L34:
 220:../../protocol/lufa/LUFA-120730/LUFA/Drivers/USB/Class/Common/HIDParser.c **** 				{
 903               		.loc 1 220 0 is_stmt 0 discriminator 1
 904 047c D701      		movw r26,r14
 905 047e 5A96      		adiw r26,26
 906 0480 8C91      		ld r24,X
 907 0482 EA96      		adiw r28,121-63
 908 0484 2FAD      		ldd r18,Y+63
 909 0486 EA97      		sbiw r28,121-63
 910 0488 2817      		cp r18,r24
 911 048a 00F0      		brlo .+2
 912 048c 00C0      		rjmp .L17
 913               	.LBB8:
 224:../../protocol/lufa/LUFA-120730/LUFA/Drivers/USB/Class/Common/HIDParser.c **** 					       &CurrStateTable->Attributes,
 914               		.loc 1 224 0 is_stmt 1
 915 048e 8AE1      		ldi r24,lo8(26)
 916 0490 F701      		movw r30,r14
 917 0492 DE01      		movw r26,r28
 918 0494 AF5B      		subi r26,-65
 919 0496 BF4F      		sbci r27,-1
 920               		0:
 921 0498 0190      		ld r0,Z+
 922 049a 0D92      		st X+,r0
 923 049c 8A95      		dec r24
 924 049e 01F4      		brne 0b
 228:../../protocol/lufa/LUFA-120730/LUFA/Drivers/USB/Class/Common/HIDParser.c **** 					NewReportItem.CollectionPath = CurrCollectionPath;
 925               		.loc 1 228 0
 926 04a0 9DAE      		std Y+61,r9
 927 04a2 8CAE      		std Y+60,r8
 229:../../protocol/lufa/LUFA-120730/LUFA/Drivers/USB/Class/Common/HIDParser.c **** 					NewReportItem.ReportID       = CurrStateTable->ReportID;
 928               		.loc 1 229 0
 929 04a4 2196      		adiw r28,63-62
 930 04a6 3FAE      		std Y+63,r3
 931 04a8 2EAE      		std Y+62,r2
 932 04aa 2197      		sbiw r28,63-62
 230:../../protocol/lufa/LUFA-120730/LUFA/Drivers/USB/Class/Common/HIDParser.c **** 
 933               		.loc 1 230 0
 934 04ac D701      		movw r26,r14
 935 04ae 5B96      		adiw r26,27
 936 04b0 8C91      		ld r24,X
 937 04b2 8EAF      		std Y+62,r24
 232:../../protocol/lufa/LUFA-120730/LUFA/Drivers/USB/Class/Common/HIDParser.c **** 					{
 938               		.loc 1 232 0
 939 04b4 0023      		tst r16
 940 04b6 01F0      		breq .L46
 234:../../protocol/lufa/LUFA-120730/LUFA/Drivers/USB/Class/Common/HIDParser.c **** 
 941               		.loc 1 234 0
 942 04b8 FE01      		movw r30,r28
 943 04ba ED59      		subi r30,-99
 944 04bc FF4F      		sbci r31,-1
 945 04be 8191      		ld r24,Z+
 946 04c0 9191      		ld r25,Z+
 947 04c2 2696      		adiw r28,68-62
 948 04c4 9FAF      		std Y+63,r25
 949 04c6 8EAF      		std Y+62,r24
 950 04c8 2697      		sbiw r28,68-62
 951               	.LVL78:
 952 04ca DE01      		movw r26,r28
 953 04cc AD59      		subi r26,-99
 954 04ce BF4F      		sbci r27,-1
 955               	.LBB5:
 236:../../protocol/lufa/LUFA-120730/LUFA/Drivers/USB/Class/Common/HIDParser.c **** 						  UsageList[i] = UsageList[i + 1];
 956               		.loc 1 236 0
 957 04d0 20E0      		ldi r18,0
 958               	.LVL79:
 959               	.L47:
 237:../../protocol/lufa/LUFA-120730/LUFA/Drivers/USB/Class/Common/HIDParser.c **** 
 960               		.loc 1 237 0 discriminator 3
 961 04d2 8191      		ld r24,Z+
 962 04d4 9191      		ld r25,Z+
 963 04d6 8D93      		st X+,r24
 964 04d8 9D93      		st X+,r25
 236:../../protocol/lufa/LUFA-120730/LUFA/Drivers/USB/Class/Common/HIDParser.c **** 						  UsageList[i] = UsageList[i + 1];
 965               		.loc 1 236 0 discriminator 3
 966 04da 2F5F      		subi r18,lo8(-(1))
 967               	.LVL80:
 968 04dc 0213      		cpse r16,r18
 969 04de 00C0      		rjmp .L47
 970               	.LBE5:
 239:../../protocol/lufa/LUFA-120730/LUFA/Drivers/USB/Class/Common/HIDParser.c **** 					}
 971               		.loc 1 239 0
 972 04e0 0150      		subi r16,lo8(-(-1))
 973               	.LVL81:
 974 04e2 00C0      		rjmp .L48
 975               	.LVL82:
 976               	.L46:
 241:../../protocol/lufa/LUFA-120730/LUFA/Drivers/USB/Class/Common/HIDParser.c **** 					{
 977               		.loc 1 241 0
 978 04e4 E996      		adiw r28,117-60
 979 04e6 8CAD      		ldd r24,Y+60
 980 04e8 9DAD      		ldd r25,Y+61
 981 04ea AEAD      		ldd r26,Y+62
 982 04ec BFAD      		ldd r27,Y+63
 983 04ee E997      		sbiw r28,117-60
 984 04f0 8415      		cp r24,r4
 985 04f2 9505      		cpc r25,r5
 986 04f4 A605      		cpc r26,r6
 987 04f6 B705      		cpc r27,r7
 988 04f8 00F0      		brlo .L48
 989               	.LVL83:
 243:../../protocol/lufa/LUFA-120730/LUFA/Drivers/USB/Class/Common/HIDParser.c **** 					}
 990               		.loc 1 243 0
 991 04fa 2696      		adiw r28,68-62
 992 04fc 5FAE      		std Y+63,r5
 993 04fe 4EAE      		std Y+62,r4
 994 0500 2697      		sbiw r28,68-62
 995 0502 9FEF      		ldi r25,-1
 996 0504 491A      		sub r4,r25
 997 0506 590A      		sbc r5,r25
 998 0508 690A      		sbc r6,r25
 999 050a 790A      		sbc r7,r25
 1000               	.LVL84:
 1001               	.L48:
 248:../../protocol/lufa/LUFA-120730/LUFA/Drivers/USB/Class/Common/HIDParser.c **** 					  NewReportItem.ItemType = HID_REPORT_ITEM_In;
 1002               		.loc 1 248 0
 1003 050c 1038      		cpi r17,lo8(-128)
 1004 050e 01F4      		brne .L49
 249:../../protocol/lufa/LUFA-120730/LUFA/Drivers/USB/Class/Common/HIDParser.c **** 					else if (ItemTypeTag == HID_RI_OUTPUT(0))
 1005               		.loc 1 249 0
 1006 0510 1BAE      		std Y+59,__zero_reg__
 1007 0512 00C0      		rjmp .L50
 1008               	.L49:
 250:../../protocol/lufa/LUFA-120730/LUFA/Drivers/USB/Class/Common/HIDParser.c **** 					  NewReportItem.ItemType = HID_REPORT_ITEM_Out;
 1009               		.loc 1 250 0
 1010 0514 1039      		cpi r17,lo8(-112)
 1011 0516 01F4      		brne .L51
 251:../../protocol/lufa/LUFA-120730/LUFA/Drivers/USB/Class/Common/HIDParser.c **** 					else
 1012               		.loc 1 251 0
 1013 0518 A1E0      		ldi r26,lo8(1)
 1014 051a ABAF      		std Y+59,r26
 1015 051c 00C0      		rjmp .L50
 1016               	.L51:
 253:../../protocol/lufa/LUFA-120730/LUFA/Drivers/USB/Class/Common/HIDParser.c **** 
 1017               		.loc 1 253 0
 1018 051e B2E0      		ldi r27,lo8(2)
 1019 0520 BBAF      		std Y+59,r27
 1020               	.L50:
 255:../../protocol/lufa/LUFA-120730/LUFA/Drivers/USB/Class/Common/HIDParser.c **** 
 1021               		.loc 1 255 0
 1022 0522 8BAD      		ldd r24,Y+59
 1023 0524 E596      		adiw r28,115-62
 1024 0526 EEAD      		ldd r30,Y+62
 1025 0528 FFAD      		ldd r31,Y+63
 1026 052a E597      		sbiw r28,115-62
 1027 052c E80F      		add r30,r24
 1028 052e F11D      		adc r31,__zero_reg__
 1029 0530 E80F      		add r30,r24
 1030 0532 F11D      		adc r31,__zero_reg__
 1031 0534 8181      		ldd r24,Z+1
 1032 0536 9281      		ldd r25,Z+2
 1033 0538 9AAF      		std Y+58,r25
 1034 053a 89AF      		std Y+57,r24
 257:../../protocol/lufa/LUFA-120730/LUFA/Drivers/USB/Class/Common/HIDParser.c **** 
 1035               		.loc 1 257 0
 1036 053c D701      		movw r26,r14
 1037 053e 2C91      		ld r18,X
 1038 0540 8181      		ldd r24,Z+1
 1039 0542 9281      		ldd r25,Z+2
 1040 0544 820F      		add r24,r18
 1041 0546 911D      		adc r25,__zero_reg__
 1042 0548 9283      		std Z+2,r25
 1043 054a 8183      		std Z+1,r24
 259:../../protocol/lufa/LUFA-120730/LUFA/Drivers/USB/Class/Common/HIDParser.c **** 
 1044               		.loc 1 259 0
 1045 054c 8BAD      		ldd r24,Y+59
 1046 054e E596      		adiw r28,115-62
 1047 0550 EEAD      		ldd r30,Y+62
 1048 0552 FFAD      		ldd r31,Y+63
 1049 0554 E597      		sbiw r28,115-62
 1050 0556 E80F      		add r30,r24
 1051 0558 F11D      		adc r31,__zero_reg__
 1052 055a E80F      		add r30,r24
 1053 055c F11D      		adc r31,__zero_reg__
 1054 055e EF96      		adiw r28,125-62
 1055 0560 AEAD      		ldd r26,Y+62
 1056 0562 BFAD      		ldd r27,Y+63
 1057 0564 EF97      		sbiw r28,125-62
 1058 0566 8D91      		ld r24,X+
 1059 0568 9C91      		ld r25,X
 1060 056a 2181      		ldd r18,Z+1
 1061 056c 3281      		ldd r19,Z+2
 1062 056e 2817      		cp r18,r24
 1063 0570 3907      		cpc r19,r25
 1064 0572 00F4      		brsh .L52
 1065 0574 9C01      		movw r18,r24
 1066               	.L52:
 1067 0576 EF96      		adiw r28,125-62
 1068 0578 EEAD      		ldd r30,Y+62
 1069 057a FFAD      		ldd r31,Y+63
 1070 057c EF97      		sbiw r28,125-62
 1071 057e 3183      		std Z+1,r19
 1072 0580 2083      		st Z,r18
 261:../../protocol/lufa/LUFA-120730/LUFA/Drivers/USB/Class/Common/HIDParser.c **** 					  return HID_PARSE_InsufficientReportItems;
 1073               		.loc 1 261 0
 1074 0582 DA01      		movw r26,r20
 1075 0584 8C91      		ld r24,X
 1076 0586 8431      		cpi r24,lo8(20)
 1077 0588 01F0      		breq .+2
 1078 058a 00C0      		rjmp .L53
 262:../../protocol/lufa/LUFA-120730/LUFA/Drivers/USB/Class/Common/HIDParser.c **** 
 1079               		.loc 1 262 0
 1080 058c 83E0      		ldi r24,lo8(3)
 1081 058e 00C0      		rjmp .L88
 1082               	.L95:
 1083               		.loc 1 267 0 discriminator 1
 1084 0590 CE01      		movw r24,r28
 1085 0592 C996      		adiw r24,57
 1086 0594 C557      		subi r28,lo8(-139)
 1087 0596 DF4F      		sbci r29,hi8(-139)
 1088 0598 4883      		st Y,r20
 1089 059a CB58      		subi r28,lo8(139)
 1090 059c D040      		sbci r29,hi8(139)
 1091 059e C457      		subi r28,lo8(-140)
 1092 05a0 DF4F      		sbci r29,hi8(-140)
 1093 05a2 5883      		st Y,r21
 1094 05a4 CC58      		subi r28,lo8(140)
 1095 05a6 D040      		sbci r29,hi8(140)
 1096 05a8 C757      		subi r28,lo8(-137)
 1097 05aa DF4F      		sbci r29,hi8(-137)
 1098 05ac 6883      		st Y,r22
 1099 05ae C958      		subi r28,lo8(137)
 1100 05b0 D040      		sbci r29,hi8(137)
 1101 05b2 C657      		subi r28,lo8(-138)
 1102 05b4 DF4F      		sbci r29,hi8(-138)
 1103 05b6 7883      		st Y,r23
 1104 05b8 CA58      		subi r28,lo8(138)
 1105 05ba D040      		sbci r29,hi8(138)
 1106 05bc 0E94 0000 		call CALLBACK_HIDParser_FilterHIDReportItem
 1107               	.LVL85:
 1108 05c0 C557      		subi r28,lo8(-139)
 1109 05c2 DF4F      		sbci r29,hi8(-139)
 1110 05c4 4881      		ld r20,Y
 1111 05c6 CB58      		subi r28,lo8(139)
 1112 05c8 D040      		sbci r29,hi8(139)
 1113 05ca C457      		subi r28,lo8(-140)
 1114 05cc DF4F      		sbci r29,hi8(-140)
 1115 05ce 5881      		ld r21,Y
 1116 05d0 CC58      		subi r28,lo8(140)
 1117 05d2 D040      		sbci r29,hi8(140)
 1118 05d4 C757      		subi r28,lo8(-137)
 1119 05d6 DF4F      		sbci r29,hi8(-137)
 1120 05d8 6881      		ld r22,Y
 1121 05da C958      		subi r28,lo8(137)
 1122 05dc D040      		sbci r29,hi8(137)
 1123 05de C657      		subi r28,lo8(-138)
 1124 05e0 DF4F      		sbci r29,hi8(-138)
 1125 05e2 7881      		ld r23,Y
 1126 05e4 CA58      		subi r28,lo8(138)
 1127 05e6 D040      		sbci r29,hi8(138)
 1128 05e8 8823      		tst r24
 1129 05ea 01F4      		brne .+2
 1130 05ec 00C0      		rjmp .L55
 268:../../protocol/lufa/LUFA-120730/LUFA/Drivers/USB/Class/Common/HIDParser.c **** 					  ParserData->TotalReportItems++;
 1131               		.loc 1 268 0
 1132 05ee DA01      		movw r26,r20
 1133 05f0 8C91      		ld r24,X
 1134 05f2 8F5F      		subi r24,lo8(-(1))
 1135 05f4 8C93      		st X,r24
 1136 05f6 00C0      		rjmp .L55
 1137               	.LVL86:
 1138               	.L17:
 1139               	.LBE8:
 1140               	.LBE15:
 269:../../protocol/lufa/LUFA-120730/LUFA/Drivers/USB/Class/Common/HIDParser.c **** 				}
 270:../../protocol/lufa/LUFA-120730/LUFA/Drivers/USB/Class/Common/HIDParser.c **** 
 271:../../protocol/lufa/LUFA-120730/LUFA/Drivers/USB/Class/Common/HIDParser.c **** 				break;
 272:../../protocol/lufa/LUFA-120730/LUFA/Drivers/USB/Class/Common/HIDParser.c **** 		}
 273:../../protocol/lufa/LUFA-120730/LUFA/Drivers/USB/Class/Common/HIDParser.c **** 
 274:../../protocol/lufa/LUFA-120730/LUFA/Drivers/USB/Class/Common/HIDParser.c **** 		if ((HIDReportItem & HID_RI_TYPE_MASK) == HID_RI_TYPE_MAIN)
 1141               		.loc 1 274 0
 1142 05f8 EB96      		adiw r28,122-63
 1143 05fa 8FAD      		ldd r24,Y+63
 1144 05fc EB97      		sbiw r28,122-63
 1145 05fe 8C70      		andi r24,lo8(12)
 1146 0600 01F0      		breq .+2
 1147 0602 00C0      		rjmp .L2
 275:../../protocol/lufa/LUFA-120730/LUFA/Drivers/USB/Class/Common/HIDParser.c **** 		{
 276:../../protocol/lufa/LUFA-120730/LUFA/Drivers/USB/Class/Common/HIDParser.c **** 			UsageMinMax.Minimum = 0;
 277:../../protocol/lufa/LUFA-120730/LUFA/Drivers/USB/Class/Common/HIDParser.c **** 			UsageMinMax.Maximum = 0;
 1148               		.loc 1 277 0
 1149 0604 E996      		adiw r28,117-60
 1150 0606 1CAE      		std Y+60,__zero_reg__
 1151 0608 1DAE      		std Y+61,__zero_reg__
 1152 060a 1EAE      		std Y+62,__zero_reg__
 1153 060c 1FAE      		std Y+63,__zero_reg__
 1154 060e E997      		sbiw r28,117-60
 1155               	.LVL87:
 276:../../protocol/lufa/LUFA-120730/LUFA/Drivers/USB/Class/Common/HIDParser.c **** 			UsageMinMax.Maximum = 0;
 1156               		.loc 1 276 0
 1157 0610 412C      		mov r4,__zero_reg__
 1158 0612 512C      		mov r5,__zero_reg__
 1159 0614 3201      		movw r6,r4
 1160               	.LVL88:
 278:../../protocol/lufa/LUFA-120730/LUFA/Drivers/USB/Class/Common/HIDParser.c **** 			UsageListSize       = 0;
 1161               		.loc 1 278 0
 1162 0616 00E0      		ldi r16,0
 1163               	.LVL89:
 1164 0618 00C0      		rjmp .L2
 1165               	.LVL90:
 1166               	.L91:
 1167               	.LBE17:
 279:../../protocol/lufa/LUFA-120730/LUFA/Drivers/USB/Class/Common/HIDParser.c **** 		}
 280:../../protocol/lufa/LUFA-120730/LUFA/Drivers/USB/Class/Common/HIDParser.c **** 	}
 281:../../protocol/lufa/LUFA-120730/LUFA/Drivers/USB/Class/Common/HIDParser.c **** 
 282:../../protocol/lufa/LUFA-120730/LUFA/Drivers/USB/Class/Common/HIDParser.c **** 	if (!(ParserData->TotalReportItems))
 1168               		.loc 1 282 0
 1169 061a DA01      		movw r26,r20
 1170 061c 8C91      		ld r24,X
 1171 061e 8823      		tst r24
 1172 0620 01F0      		breq .L67
 283:../../protocol/lufa/LUFA-120730/LUFA/Drivers/USB/Class/Common/HIDParser.c **** 	  return HID_PARSE_NoUnfilteredReportItems;
 284:../../protocol/lufa/LUFA-120730/LUFA/Drivers/USB/Class/Common/HIDParser.c **** 
 285:../../protocol/lufa/LUFA-120730/LUFA/Drivers/USB/Class/Common/HIDParser.c **** 	return HID_PARSE_Successful;
 1173               		.loc 1 285 0
 1174 0622 80E0      		ldi r24,0
 1175 0624 00C0      		rjmp .L88
 1176               	.LVL91:
 1177               	.L62:
 1178               	.LBB18:
  85:../../protocol/lufa/LUFA-120730/LUFA/Drivers/USB/Class/Common/HIDParser.c **** 
 1179               		.loc 1 85 0
 1180 0626 81E0      		ldi r24,lo8(1)
 1181 0628 00C0      		rjmp .L88
 1182               	.L63:
  95:../../protocol/lufa/LUFA-120730/LUFA/Drivers/USB/Class/Common/HIDParser.c **** 
 1183               		.loc 1 95 0
 1184 062a 82E0      		ldi r24,lo8(2)
 1185 062c 00C0      		rjmp .L88
 1186               	.L64:
 161:../../protocol/lufa/LUFA-120730/LUFA/Drivers/USB/Class/Common/HIDParser.c **** 
 1187               		.loc 1 161 0
 1188 062e 86E0      		ldi r24,lo8(6)
 1189 0630 00C0      		rjmp .L88
 1190               	.LVL92:
 1191               	.L65:
 1192               	.LBB16:
 185:../../protocol/lufa/LUFA-120730/LUFA/Drivers/USB/Class/Common/HIDParser.c **** 
 1193               		.loc 1 185 0
 1194 0632 85E0      		ldi r24,lo8(5)
 1195 0634 00C0      		rjmp .L88
 1196               	.LVL93:
 1197               	.L66:
 1198               	.LBE16:
 213:../../protocol/lufa/LUFA-120730/LUFA/Drivers/USB/Class/Common/HIDParser.c **** 
 1199               		.loc 1 213 0
 1200 0636 84E0      		ldi r24,lo8(4)
 1201 0638 00C0      		rjmp .L88
 1202               	.LVL94:
 1203               	.L67:
 1204               	.LBE18:
 283:../../protocol/lufa/LUFA-120730/LUFA/Drivers/USB/Class/Common/HIDParser.c **** 
 1205               		.loc 1 283 0
 1206 063a 88E0      		ldi r24,lo8(8)
 1207 063c 00C0      		rjmp .L88
 1208               	.LVL95:
 1209               	.L93:
 1210               	.LBB19:
 148:../../protocol/lufa/LUFA-120730/LUFA/Drivers/USB/Class/Common/HIDParser.c **** 
 1211               		.loc 1 148 0
 1212 063e 87E0      		ldi r24,lo8(7)
 1213               	.LVL96:
 1214               	.L88:
 1215               	/* epilogue start */
 1216               	.LBE19:
 286:../../protocol/lufa/LUFA-120730/LUFA/Drivers/USB/Class/Common/HIDParser.c **** }
 1217               		.loc 1 286 0
 1218 0640 C457      		subi r28,116
 1219 0642 DF4F      		sbci r29,-1
 1220 0644 0FB6      		in __tmp_reg__,__SREG__
 1221 0646 F894      		cli
 1222 0648 DEBF      		out __SP_H__,r29
 1223 064a 0FBE      		out __SREG__,__tmp_reg__
 1224 064c CDBF      		out __SP_L__,r28
 1225 064e DF91      		pop r29
 1226 0650 CF91      		pop r28
 1227 0652 1F91      		pop r17
 1228 0654 0F91      		pop r16
 1229               	.LVL97:
 1230 0656 FF90      		pop r15
 1231 0658 EF90      		pop r14
 1232               	.LVL98:
 1233 065a DF90      		pop r13
 1234 065c CF90      		pop r12
 1235               	.LVL99:
 1236 065e BF90      		pop r11
 1237 0660 AF90      		pop r10
 1238 0662 9F90      		pop r9
 1239 0664 8F90      		pop r8
 1240 0666 7F90      		pop r7
 1241 0668 6F90      		pop r6
 1242 066a 5F90      		pop r5
 1243 066c 4F90      		pop r4
 1244               	.LVL100:
 1245 066e 3F90      		pop r3
 1246 0670 2F90      		pop r2
 1247 0672 0895      		ret
 1248               		.cfi_endproc
 1249               	.LFE16:
 1251               		.section	.text.USB_GetHIDReportItemInfo,"ax",@progbits
 1252               	.global	USB_GetHIDReportItemInfo
 1254               	USB_GetHIDReportItemInfo:
 1255               	.LFB17:
 287:../../protocol/lufa/LUFA-120730/LUFA/Drivers/USB/Class/Common/HIDParser.c **** 
 288:../../protocol/lufa/LUFA-120730/LUFA/Drivers/USB/Class/Common/HIDParser.c **** bool USB_GetHIDReportItemInfo(const uint8_t* ReportData,
 289:../../protocol/lufa/LUFA-120730/LUFA/Drivers/USB/Class/Common/HIDParser.c ****                               HID_ReportItem_t* const ReportItem)
 290:../../protocol/lufa/LUFA-120730/LUFA/Drivers/USB/Class/Common/HIDParser.c **** {
 1256               		.loc 1 290 0
 1257               		.cfi_startproc
 1258               	.LVL101:
 1259 0000 8F92      		push r8
 1260               	.LCFI20:
 1261               		.cfi_def_cfa_offset 3
 1262               		.cfi_offset 8, -2
 1263 0002 9F92      		push r9
 1264               	.LCFI21:
 1265               		.cfi_def_cfa_offset 4
 1266               		.cfi_offset 9, -3
 1267 0004 AF92      		push r10
 1268               	.LCFI22:
 1269               		.cfi_def_cfa_offset 5
 1270               		.cfi_offset 10, -4
 1271 0006 BF92      		push r11
 1272               	.LCFI23:
 1273               		.cfi_def_cfa_offset 6
 1274               		.cfi_offset 11, -5
 1275 0008 CF92      		push r12
 1276               	.LCFI24:
 1277               		.cfi_def_cfa_offset 7
 1278               		.cfi_offset 12, -6
 1279 000a DF92      		push r13
 1280               	.LCFI25:
 1281               		.cfi_def_cfa_offset 8
 1282               		.cfi_offset 13, -7
 1283 000c EF92      		push r14
 1284               	.LCFI26:
 1285               		.cfi_def_cfa_offset 9
 1286               		.cfi_offset 14, -8
 1287 000e FF92      		push r15
 1288               	.LCFI27:
 1289               		.cfi_def_cfa_offset 10
 1290               		.cfi_offset 15, -9
 1291               	/* prologue: function */
 1292               	/* frame size = 0 */
 1293               	/* stack size = 8 */
 1294               	.L__stack_usage = 8
 1295 0010 FB01      		movw r30,r22
 291:../../protocol/lufa/LUFA-120730/LUFA/Drivers/USB/Class/Common/HIDParser.c **** 	if (ReportItem == NULL)
 1296               		.loc 1 291 0
 1297 0012 3097      		sbiw r30,0
 1298 0014 01F4      		brne .+2
 1299 0016 00C0      		rjmp .L103
 1300               	.LVL102:
 292:../../protocol/lufa/LUFA-120730/LUFA/Drivers/USB/Class/Common/HIDParser.c **** 	  return false;
 293:../../protocol/lufa/LUFA-120730/LUFA/Drivers/USB/Class/Common/HIDParser.c **** 
 294:../../protocol/lufa/LUFA-120730/LUFA/Drivers/USB/Class/Common/HIDParser.c **** 	uint16_t DataBitsRem  = ReportItem->Attributes.BitSize;
 295:../../protocol/lufa/LUFA-120730/LUFA/Drivers/USB/Class/Common/HIDParser.c **** 	uint16_t CurrentBit   = ReportItem->BitOffset;
 296:../../protocol/lufa/LUFA-120730/LUFA/Drivers/USB/Class/Common/HIDParser.c **** 	uint32_t BitMask      = (1 << 0);
 297:../../protocol/lufa/LUFA-120730/LUFA/Drivers/USB/Class/Common/HIDParser.c **** 
 298:../../protocol/lufa/LUFA-120730/LUFA/Drivers/USB/Class/Common/HIDParser.c **** 	if (ReportItem->ReportID)
 1301               		.loc 1 298 0
 1302 0018 2581      		ldd r18,Z+5
 1303 001a 2223      		tst r18
 1304 001c 01F0      		breq .L98
 299:../../protocol/lufa/LUFA-120730/LUFA/Drivers/USB/Class/Common/HIDParser.c **** 	{
 300:../../protocol/lufa/LUFA-120730/LUFA/Drivers/USB/Class/Common/HIDParser.c **** 		if (ReportItem->ReportID != ReportData[0])
 1305               		.loc 1 300 0
 1306 001e DC01      		movw r26,r24
 1307 0020 3C91      		ld r19,X
 1308 0022 2313      		cpse r18,r19
 1309 0024 00C0      		rjmp .L103
 301:../../protocol/lufa/LUFA-120730/LUFA/Drivers/USB/Class/Common/HIDParser.c **** 		  return false;
 302:../../protocol/lufa/LUFA-120730/LUFA/Drivers/USB/Class/Common/HIDParser.c **** 
 303:../../protocol/lufa/LUFA-120730/LUFA/Drivers/USB/Class/Common/HIDParser.c **** 		ReportData++;
 1310               		.loc 1 303 0
 1311 0026 0196      		adiw r24,1
 1312               	.LVL103:
 1313               	.L98:
 294:../../protocol/lufa/LUFA-120730/LUFA/Drivers/USB/Class/Common/HIDParser.c **** 	uint16_t CurrentBit   = ReportItem->BitOffset;
 1314               		.loc 1 294 0
 1315 0028 2085      		ldd r18,Z+8
 1316 002a 30E0      		ldi r19,0
 295:../../protocol/lufa/LUFA-120730/LUFA/Drivers/USB/Class/Common/HIDParser.c **** 	uint32_t BitMask      = (1 << 0);
 1317               		.loc 1 295 0
 1318 002c 6081      		ld r22,Z
 1319 002e 7181      		ldd r23,Z+1
 1320               	.LVL104:
 304:../../protocol/lufa/LUFA-120730/LUFA/Drivers/USB/Class/Common/HIDParser.c **** 	}
 305:../../protocol/lufa/LUFA-120730/LUFA/Drivers/USB/Class/Common/HIDParser.c **** 
 306:../../protocol/lufa/LUFA-120730/LUFA/Drivers/USB/Class/Common/HIDParser.c **** 	ReportItem->PreviousValue = ReportItem->Value;
 1321               		.loc 1 306 0
 1322 0030 C2A0      		ldd r12,Z+34
 1323 0032 D3A0      		ldd r13,Z+35
 1324 0034 E4A0      		ldd r14,Z+36
 1325 0036 F5A0      		ldd r15,Z+37
 1326 0038 C6A2      		std Z+38,r12
 1327 003a D7A2      		std Z+39,r13
 1328 003c E0A6      		std Z+40,r14
 1329 003e F1A6      		std Z+41,r15
 307:../../protocol/lufa/LUFA-120730/LUFA/Drivers/USB/Class/Common/HIDParser.c **** 	ReportItem->Value = 0;
 1330               		.loc 1 307 0
 1331 0040 12A2      		std Z+34,__zero_reg__
 1332 0042 13A2      		std Z+35,__zero_reg__
 1333 0044 14A2      		std Z+36,__zero_reg__
 1334 0046 15A2      		std Z+37,__zero_reg__
 296:../../protocol/lufa/LUFA-120730/LUFA/Drivers/USB/Class/Common/HIDParser.c **** 
 1335               		.loc 1 296 0
 1336 0048 C12C      		mov r12,__zero_reg__
 1337 004a D12C      		mov r13,__zero_reg__
 1338 004c 7601      		movw r14,r12
 1339 004e C394      		inc r12
 1340               	.LVL105:
 1341               	.L99:
 308:../../protocol/lufa/LUFA-120730/LUFA/Drivers/USB/Class/Common/HIDParser.c **** 
 309:../../protocol/lufa/LUFA-120730/LUFA/Drivers/USB/Class/Common/HIDParser.c **** 	while (DataBitsRem--)
 1342               		.loc 1 309 0
 1343               	.LVL106:
 1344 0050 2150      		subi r18,1
 1345 0052 3109      		sbc r19,__zero_reg__
 1346 0054 00F0      		brcs .L110
 310:../../protocol/lufa/LUFA-120730/LUFA/Drivers/USB/Class/Common/HIDParser.c **** 	{
 311:../../protocol/lufa/LUFA-120730/LUFA/Drivers/USB/Class/Common/HIDParser.c **** 		if (ReportData[CurrentBit / 8] & (1 << (CurrentBit % 8)))
 1347               		.loc 1 311 0
 1348 0056 DB01      		movw r26,r22
 1349 0058 53E0      		ldi r21,3
 1350               		1:
 1351 005a B695      		lsr r27
 1352 005c A795      		ror r26
 1353 005e 5A95      		dec r21
 1354 0060 01F4      		brne 1b
 1355 0062 A80F      		add r26,r24
 1356 0064 B91F      		adc r27,r25
 1357 0066 4C91      		ld r20,X
 1358 0068 50E0      		ldi r21,0
 1359 006a DB01      		movw r26,r22
 1360 006c A770      		andi r26,7
 1361 006e BB27      		clr r27
 1362 0070 00C0      		rjmp 2f
 1363               		1:
 1364 0072 5595      		asr r21
 1365 0074 4795      		ror r20
 1366               		2:
 1367 0076 AA95      		dec r26
 1368 0078 02F4      		brpl 1b
 1369 007a 40FF      		sbrs r20,0
 1370 007c 00C0      		rjmp .L100
 312:../../protocol/lufa/LUFA-120730/LUFA/Drivers/USB/Class/Common/HIDParser.c **** 		  ReportItem->Value |= BitMask;
 1371               		.loc 1 312 0
 1372 007e 82A0      		ldd r8,Z+34
 1373 0080 93A0      		ldd r9,Z+35
 1374 0082 A4A0      		ldd r10,Z+36
 1375 0084 B5A0      		ldd r11,Z+37
 1376 0086 8C28      		or r8,r12
 1377 0088 9D28      		or r9,r13
 1378 008a AE28      		or r10,r14
 1379 008c BF28      		or r11,r15
 1380 008e 82A2      		std Z+34,r8
 1381 0090 93A2      		std Z+35,r9
 1382 0092 A4A2      		std Z+36,r10
 1383 0094 B5A2      		std Z+37,r11
 1384               	.L100:
 313:../../protocol/lufa/LUFA-120730/LUFA/Drivers/USB/Class/Common/HIDParser.c **** 
 314:../../protocol/lufa/LUFA-120730/LUFA/Drivers/USB/Class/Common/HIDParser.c **** 		CurrentBit++;
 1385               		.loc 1 314 0
 1386 0096 6F5F      		subi r22,-1
 1387 0098 7F4F      		sbci r23,-1
 1388               	.LVL107:
 315:../../protocol/lufa/LUFA-120730/LUFA/Drivers/USB/Class/Common/HIDParser.c **** 		BitMask <<= 1;
 1389               		.loc 1 315 0
 1390 009a CC0C      		lsl r12
 1391 009c DD1C      		rol r13
 1392 009e EE1C      		rol r14
 1393 00a0 FF1C      		rol r15
 1394               	.LVL108:
 1395 00a2 00C0      		rjmp .L99
 1396               	.L110:
 316:../../protocol/lufa/LUFA-120730/LUFA/Drivers/USB/Class/Common/HIDParser.c **** 	}
 317:../../protocol/lufa/LUFA-120730/LUFA/Drivers/USB/Class/Common/HIDParser.c **** 
 318:../../protocol/lufa/LUFA-120730/LUFA/Drivers/USB/Class/Common/HIDParser.c **** 	return true;
 1397               		.loc 1 318 0
 1398 00a4 81E0      		ldi r24,lo8(1)
 1399               	.LVL109:
 1400 00a6 00C0      		rjmp .L97
 1401               	.LVL110:
 1402               	.L103:
 292:../../protocol/lufa/LUFA-120730/LUFA/Drivers/USB/Class/Common/HIDParser.c **** 
 1403               		.loc 1 292 0
 1404 00a8 80E0      		ldi r24,0
 1405               	.LVL111:
 1406               	.L97:
 1407               	/* epilogue start */
 319:../../protocol/lufa/LUFA-120730/LUFA/Drivers/USB/Class/Common/HIDParser.c **** }
 1408               		.loc 1 319 0
 1409 00aa FF90      		pop r15
 1410 00ac EF90      		pop r14
 1411 00ae DF90      		pop r13
 1412 00b0 CF90      		pop r12
 1413 00b2 BF90      		pop r11
 1414 00b4 AF90      		pop r10
 1415 00b6 9F90      		pop r9
 1416 00b8 8F90      		pop r8
 1417 00ba 0895      		ret
 1418               		.cfi_endproc
 1419               	.LFE17:
 1421               		.section	.text.USB_SetHIDReportItemInfo,"ax",@progbits
 1422               	.global	USB_SetHIDReportItemInfo
 1424               	USB_SetHIDReportItemInfo:
 1425               	.LFB18:
 320:../../protocol/lufa/LUFA-120730/LUFA/Drivers/USB/Class/Common/HIDParser.c **** 
 321:../../protocol/lufa/LUFA-120730/LUFA/Drivers/USB/Class/Common/HIDParser.c **** void USB_SetHIDReportItemInfo(uint8_t* ReportData,
 322:../../protocol/lufa/LUFA-120730/LUFA/Drivers/USB/Class/Common/HIDParser.c ****                               HID_ReportItem_t* const ReportItem)
 323:../../protocol/lufa/LUFA-120730/LUFA/Drivers/USB/Class/Common/HIDParser.c **** {
 1426               		.loc 1 323 0
 1427               		.cfi_startproc
 1428               	.LVL112:
 1429 0000 4F92      		push r4
 1430               	.LCFI28:
 1431               		.cfi_def_cfa_offset 3
 1432               		.cfi_offset 4, -2
 1433 0002 5F92      		push r5
 1434               	.LCFI29:
 1435               		.cfi_def_cfa_offset 4
 1436               		.cfi_offset 5, -3
 1437 0004 6F92      		push r6
 1438               	.LCFI30:
 1439               		.cfi_def_cfa_offset 5
 1440               		.cfi_offset 6, -4
 1441 0006 7F92      		push r7
 1442               	.LCFI31:
 1443               		.cfi_def_cfa_offset 6
 1444               		.cfi_offset 7, -5
 1445 0008 8F92      		push r8
 1446               	.LCFI32:
 1447               		.cfi_def_cfa_offset 7
 1448               		.cfi_offset 8, -6
 1449 000a 9F92      		push r9
 1450               	.LCFI33:
 1451               		.cfi_def_cfa_offset 8
 1452               		.cfi_offset 9, -7
 1453 000c AF92      		push r10
 1454               	.LCFI34:
 1455               		.cfi_def_cfa_offset 9
 1456               		.cfi_offset 10, -8
 1457 000e BF92      		push r11
 1458               	.LCFI35:
 1459               		.cfi_def_cfa_offset 10
 1460               		.cfi_offset 11, -9
 1461 0010 CF92      		push r12
 1462               	.LCFI36:
 1463               		.cfi_def_cfa_offset 11
 1464               		.cfi_offset 12, -10
 1465 0012 DF92      		push r13
 1466               	.LCFI37:
 1467               		.cfi_def_cfa_offset 12
 1468               		.cfi_offset 13, -11
 1469 0014 EF92      		push r14
 1470               	.LCFI38:
 1471               		.cfi_def_cfa_offset 13
 1472               		.cfi_offset 14, -12
 1473 0016 FF92      		push r15
 1474               	.LCFI39:
 1475               		.cfi_def_cfa_offset 14
 1476               		.cfi_offset 15, -13
 1477 0018 CF93      		push r28
 1478               	.LCFI40:
 1479               		.cfi_def_cfa_offset 15
 1480               		.cfi_offset 28, -14
 1481 001a DF93      		push r29
 1482               	.LCFI41:
 1483               		.cfi_def_cfa_offset 16
 1484               		.cfi_offset 29, -15
 1485               	/* prologue: function */
 1486               	/* frame size = 0 */
 1487               	/* stack size = 14 */
 1488               	.L__stack_usage = 14
 1489 001c FB01      		movw r30,r22
 324:../../protocol/lufa/LUFA-120730/LUFA/Drivers/USB/Class/Common/HIDParser.c **** 	if (ReportItem == NULL)
 1490               		.loc 1 324 0
 1491 001e 3097      		sbiw r30,0
 1492 0020 01F4      		brne .+2
 1493 0022 00C0      		rjmp .L111
 325:../../protocol/lufa/LUFA-120730/LUFA/Drivers/USB/Class/Common/HIDParser.c **** 	  return;
 326:../../protocol/lufa/LUFA-120730/LUFA/Drivers/USB/Class/Common/HIDParser.c **** 
 327:../../protocol/lufa/LUFA-120730/LUFA/Drivers/USB/Class/Common/HIDParser.c **** 	uint16_t DataBitsRem  = ReportItem->Attributes.BitSize;
 1494               		.loc 1 327 0
 1495 0024 2085      		ldd r18,Z+8
 1496 0026 30E0      		ldi r19,0
 1497               	.LVL113:
 328:../../protocol/lufa/LUFA-120730/LUFA/Drivers/USB/Class/Common/HIDParser.c **** 	uint16_t CurrentBit   = ReportItem->BitOffset;
 1498               		.loc 1 328 0
 1499 0028 4081      		ld r20,Z
 1500 002a 5181      		ldd r21,Z+1
 1501               	.LVL114:
 329:../../protocol/lufa/LUFA-120730/LUFA/Drivers/USB/Class/Common/HIDParser.c **** 	uint32_t BitMask      = (1 << 0);
 330:../../protocol/lufa/LUFA-120730/LUFA/Drivers/USB/Class/Common/HIDParser.c **** 
 331:../../protocol/lufa/LUFA-120730/LUFA/Drivers/USB/Class/Common/HIDParser.c **** 	if (ReportItem->ReportID)
 1502               		.loc 1 331 0
 1503 002c 6581      		ldd r22,Z+5
 1504               	.LVL115:
 1505 002e 6623      		tst r22
 1506 0030 01F0      		breq .L113
 332:../../protocol/lufa/LUFA-120730/LUFA/Drivers/USB/Class/Common/HIDParser.c **** 	{
 333:../../protocol/lufa/LUFA-120730/LUFA/Drivers/USB/Class/Common/HIDParser.c **** 		ReportData[0] = ReportItem->ReportID;
 1507               		.loc 1 333 0
 1508 0032 DC01      		movw r26,r24
 1509 0034 6D93      		st X+,r22
 1510 0036 CD01      		movw r24,r26
 1511               	.LVL116:
 1512               	.L113:
 334:../../protocol/lufa/LUFA-120730/LUFA/Drivers/USB/Class/Common/HIDParser.c **** 		ReportData++;
 335:../../protocol/lufa/LUFA-120730/LUFA/Drivers/USB/Class/Common/HIDParser.c **** 	}
 336:../../protocol/lufa/LUFA-120730/LUFA/Drivers/USB/Class/Common/HIDParser.c **** 
 337:../../protocol/lufa/LUFA-120730/LUFA/Drivers/USB/Class/Common/HIDParser.c **** 	ReportItem->PreviousValue = ReportItem->Value;
 1513               		.loc 1 337 0
 1514 0038 C2A0      		ldd r12,Z+34
 1515 003a D3A0      		ldd r13,Z+35
 1516 003c E4A0      		ldd r14,Z+36
 1517 003e F5A0      		ldd r15,Z+37
 1518 0040 C6A2      		std Z+38,r12
 1519 0042 D7A2      		std Z+39,r13
 1520 0044 E0A6      		std Z+40,r14
 1521 0046 F1A6      		std Z+41,r15
 329:../../protocol/lufa/LUFA-120730/LUFA/Drivers/USB/Class/Common/HIDParser.c **** 
 1522               		.loc 1 329 0
 1523 0048 C12C      		mov r12,__zero_reg__
 1524 004a D12C      		mov r13,__zero_reg__
 1525 004c 7601      		movw r14,r12
 1526 004e C394      		inc r12
 338:../../protocol/lufa/LUFA-120730/LUFA/Drivers/USB/Class/Common/HIDParser.c **** 
 339:../../protocol/lufa/LUFA-120730/LUFA/Drivers/USB/Class/Common/HIDParser.c **** 	while (DataBitsRem--)
 340:../../protocol/lufa/LUFA-120730/LUFA/Drivers/USB/Class/Common/HIDParser.c **** 	{
 341:../../protocol/lufa/LUFA-120730/LUFA/Drivers/USB/Class/Common/HIDParser.c **** 		if (ReportItem->Value & (1 << (CurrentBit % 8)))
 1527               		.loc 1 341 0
 1528 0050 C1E0      		ldi r28,lo8(1)
 1529 0052 D0E0      		ldi r29,0
 1530               	.LVL117:
 1531               	.L114:
 339:../../protocol/lufa/LUFA-120730/LUFA/Drivers/USB/Class/Common/HIDParser.c **** 	{
 1532               		.loc 1 339 0
 1533               	.LVL118:
 1534 0054 2150      		subi r18,1
 1535 0056 3109      		sbc r19,__zero_reg__
 1536 0058 00F0      		brcs .L111
 1537               		.loc 1 341 0
 1538 005a BA01      		movw r22,r20
 1539 005c 6770      		andi r22,7
 1540 005e 7727      		clr r23
 1541 0060 4E01      		movw r8,r28
 1542 0062 00C0      		rjmp 2f
 1543               		1:
 1544 0064 880C      		lsl r8
 1545 0066 991C      		rol r9
 1546               		2:
 1547 0068 6A95      		dec r22
 1548 006a 02F4      		brpl 1b
 1549 006c 092C      		mov __tmp_reg__,r9
 1550 006e 000C      		lsl r0
 1551 0070 AA08      		sbc r10,r10
 1552 0072 BB08      		sbc r11,r11
 1553 0074 42A0      		ldd r4,Z+34
 1554 0076 53A0      		ldd r5,Z+35
 1555 0078 64A0      		ldd r6,Z+36
 1556 007a 75A0      		ldd r7,Z+37
 1557 007c 8420      		and r8,r4
 1558 007e 9520      		and r9,r5
 1559 0080 A620      		and r10,r6
 1560 0082 B720      		and r11,r7
 1561 0084 8928      		or r8,r9
 1562 0086 8A28      		or r8,r10
 1563 0088 8B28      		or r8,r11
 1564 008a 01F0      		breq .L115
 342:../../protocol/lufa/LUFA-120730/LUFA/Drivers/USB/Class/Common/HIDParser.c **** 		  ReportData[CurrentBit / 8] |= BitMask;
 1565               		.loc 1 342 0
 1566 008c DA01      		movw r26,r20
 1567 008e 73E0      		ldi r23,3
 1568               		1:
 1569 0090 B695      		lsr r27
 1570 0092 A795      		ror r26
 1571 0094 7A95      		dec r23
 1572 0096 01F4      		brne 1b
 1573 0098 A80F      		add r26,r24
 1574 009a B91F      		adc r27,r25
 1575 009c 6C91      		ld r22,X
 1576 009e 6C29      		or r22,r12
 1577 00a0 6C93      		st X,r22
 1578               	.L115:
 343:../../protocol/lufa/LUFA-120730/LUFA/Drivers/USB/Class/Common/HIDParser.c **** 
 344:../../protocol/lufa/LUFA-120730/LUFA/Drivers/USB/Class/Common/HIDParser.c **** 		CurrentBit++;
 1579               		.loc 1 344 0
 1580 00a2 4F5F      		subi r20,-1
 1581 00a4 5F4F      		sbci r21,-1
 1582               	.LVL119:
 345:../../protocol/lufa/LUFA-120730/LUFA/Drivers/USB/Class/Common/HIDParser.c **** 		BitMask <<= 1;
 1583               		.loc 1 345 0
 1584 00a6 CC0C      		lsl r12
 1585 00a8 DD1C      		rol r13
 1586 00aa EE1C      		rol r14
 1587 00ac FF1C      		rol r15
 1588               	.LVL120:
 1589 00ae 00C0      		rjmp .L114
 1590               	.LVL121:
 1591               	.L111:
 1592               	/* epilogue start */
 346:../../protocol/lufa/LUFA-120730/LUFA/Drivers/USB/Class/Common/HIDParser.c **** 	}
 347:../../protocol/lufa/LUFA-120730/LUFA/Drivers/USB/Class/Common/HIDParser.c **** }
 1593               		.loc 1 347 0
 1594 00b0 DF91      		pop r29
 1595 00b2 CF91      		pop r28
 1596 00b4 FF90      		pop r15
 1597 00b6 EF90      		pop r14
 1598 00b8 DF90      		pop r13
 1599 00ba CF90      		pop r12
 1600 00bc BF90      		pop r11
 1601 00be AF90      		pop r10
 1602 00c0 9F90      		pop r9
 1603 00c2 8F90      		pop r8
 1604 00c4 7F90      		pop r7
 1605 00c6 6F90      		pop r6
 1606 00c8 5F90      		pop r5
 1607 00ca 4F90      		pop r4
 1608 00cc 0895      		ret
 1609               		.cfi_endproc
 1610               	.LFE18:
 1612               		.section	.text.USB_GetHIDReportSize,"ax",@progbits
 1613               	.global	USB_GetHIDReportSize
 1615               	USB_GetHIDReportSize:
 1616               	.LFB19:
 348:../../protocol/lufa/LUFA-120730/LUFA/Drivers/USB/Class/Common/HIDParser.c **** 
 349:../../protocol/lufa/LUFA-120730/LUFA/Drivers/USB/Class/Common/HIDParser.c **** uint16_t USB_GetHIDReportSize(HID_ReportInfo_t* const ParserData,
 350:../../protocol/lufa/LUFA-120730/LUFA/Drivers/USB/Class/Common/HIDParser.c ****                               const uint8_t ReportID,
 351:../../protocol/lufa/LUFA-120730/LUFA/Drivers/USB/Class/Common/HIDParser.c ****                               const uint8_t ReportType)
 352:../../protocol/lufa/LUFA-120730/LUFA/Drivers/USB/Class/Common/HIDParser.c **** {
 1617               		.loc 1 352 0
 1618               		.cfi_startproc
 1619               	.LVL122:
 1620               	/* prologue: function */
 1621               	/* frame size = 0 */
 1622               	/* stack size = 0 */
 1623               	.L__stack_usage = 0
 1624 0000 FC01      		movw r30,r24
 1625 0002 EA5B      		subi r30,-70
 1626 0004 FF4F      		sbci r31,-1
 1627 0006 50E0      		ldi r21,0
 1628 0008 440F      		lsl r20
 1629 000a 551F      		rol r21
 1630               	.LVL123:
 1631               	.LBB20:
 1632               	.LBB21:
 353:../../protocol/lufa/LUFA-120730/LUFA/Drivers/USB/Class/Common/HIDParser.c **** 	for (uint8_t i = 0; i < HID_MAX_REPORT_IDS; i++)
 354:../../protocol/lufa/LUFA-120730/LUFA/Drivers/USB/Class/Common/HIDParser.c **** 	{
 355:../../protocol/lufa/LUFA-120730/LUFA/Drivers/USB/Class/Common/HIDParser.c **** 		uint16_t ReportSizeBits = ParserData->ReportIDSizes[i].ReportSizeBits[ReportType];
 1633               		.loc 1 355 0
 1634 000c 4F56      		subi r20,111
 1635 000e 5C4F      		sbci r21,-4
 1636               	.LVL124:
 1637               	.L128:
 1638 0010 DC01      		movw r26,r24
 1639 0012 A40F      		add r26,r20
 1640 0014 B51F      		adc r27,r21
 1641 0016 2D91      		ld r18,X+
 1642 0018 3C91      		ld r19,X
 1643               	.LVL125:
 356:../../protocol/lufa/LUFA-120730/LUFA/Drivers/USB/Class/Common/HIDParser.c **** 
 357:../../protocol/lufa/LUFA-120730/LUFA/Drivers/USB/Class/Common/HIDParser.c **** 		if (ParserData->ReportIDSizes[i].ReportID == ReportID)
 1644               		.loc 1 357 0
 1645 001a DC01      		movw r26,r24
 1646 001c A057      		subi r26,112
 1647 001e BC4F      		sbci r27,-4
 1648 0020 7C91      		ld r23,X
 1649 0022 7613      		cpse r23,r22
 1650 0024 00C0      		rjmp .L125
 358:../../protocol/lufa/LUFA-120730/LUFA/Drivers/USB/Class/Common/HIDParser.c **** 		  return (ReportSizeBits / 8) + ((ReportSizeBits % 8) ? 1 : 0);
 1651               		.loc 1 358 0
 1652 0026 81E0      		ldi r24,lo8(1)
 1653 0028 90E0      		ldi r25,0
 1654 002a A901      		movw r20,r18
 1655 002c 4770      		andi r20,7
 1656 002e 5527      		clr r21
 1657 0030 452B      		or r20,r21
 1658 0032 01F4      		brne .L126
 1659 0034 80E0      		ldi r24,0
 1660 0036 90E0      		ldi r25,0
 1661               	.L126:
 1662 0038 43E0      		ldi r20,3
 1663               		1:
 1664 003a 3695      		lsr r19
 1665 003c 2795      		ror r18
 1666 003e 4A95      		dec r20
 1667 0040 01F4      		brne 1b
 1668               	.LVL126:
 1669 0042 820F      		add r24,r18
 1670 0044 931F      		adc r25,r19
 1671 0046 0895      		ret
 1672               	.LVL127:
 1673               	.L125:
 1674 0048 0796      		adiw r24,7
 1675               	.LBE21:
 353:../../protocol/lufa/LUFA-120730/LUFA/Drivers/USB/Class/Common/HIDParser.c **** 	for (uint8_t i = 0; i < HID_MAX_REPORT_IDS; i++)
 1676               		.loc 1 353 0 discriminator 2
 1677 004a 8E17      		cp r24,r30
 1678 004c 9F07      		cpc r25,r31
 1679 004e 01F4      		brne .L128
 1680               	.LBE20:
 359:../../protocol/lufa/LUFA-120730/LUFA/Drivers/USB/Class/Common/HIDParser.c **** 	}
 360:../../protocol/lufa/LUFA-120730/LUFA/Drivers/USB/Class/Common/HIDParser.c **** 
 361:../../protocol/lufa/LUFA-120730/LUFA/Drivers/USB/Class/Common/HIDParser.c **** 	return 0;
 1681               		.loc 1 361 0
 1682 0050 80E0      		ldi r24,0
 1683 0052 90E0      		ldi r25,0
 362:../../protocol/lufa/LUFA-120730/LUFA/Drivers/USB/Class/Common/HIDParser.c **** }
 1684               		.loc 1 362 0
 1685 0054 0895      		ret
 1686               		.cfi_endproc
 1687               	.LFE19:
 1689               		.text
 1690               	.Letext0:
 1691               		.file 2 "/usr/avr/include/stdint.h"
 1692               		.file 3 "../../protocol/lufa/LUFA-120730/LUFA/Drivers/USB/Class/Common/HIDClassCommon.h"
 1693               		.file 4 "../../protocol/lufa/LUFA-120730/LUFA/Drivers/USB/Class/Common/HIDParser.h"
DEFINED SYMBOLS
                            *ABS*:0000000000000000 HIDParser.c
     /tmp/ccfiJv7g.s:2      *ABS*:000000000000003e __SP_H__
     /tmp/ccfiJv7g.s:3      *ABS*:000000000000003d __SP_L__
     /tmp/ccfiJv7g.s:4      *ABS*:000000000000003f __SREG__
     /tmp/ccfiJv7g.s:5      *ABS*:0000000000000000 __tmp_reg__
     /tmp/ccfiJv7g.s:6      *ABS*:0000000000000001 __zero_reg__
     /tmp/ccfiJv7g.s:13     .text.USB_ProcessHIDReport:0000000000000000 USB_ProcessHIDReport
     /tmp/ccfiJv7g.s:1254   .text.USB_GetHIDReportItemInfo:0000000000000000 USB_GetHIDReportItemInfo
     /tmp/ccfiJv7g.s:1424   .text.USB_SetHIDReportItemInfo:0000000000000000 USB_SetHIDReportItemInfo
     /tmp/ccfiJv7g.s:1615   .text.USB_GetHIDReportSize:0000000000000000 USB_GetHIDReportSize

UNDEFINED SYMBOLS
CALLBACK_HIDParser_FilterHIDReportItem
