   1               		.file	"EndpointStream_AVR8.c"
   2               	__SP_H__ = 0x3e
   3               	__SP_L__ = 0x3d
   4               	__SREG__ = 0x3f
   5               	__tmp_reg__ = 0
   6               	__zero_reg__ = 1
   7               		.text
   8               	.Ltext0:
   9               		.cfi_sections	.debug_frame
  10               		.section	.text.Endpoint_Discard_Stream,"ax",@progbits
  11               	.global	Endpoint_Discard_Stream
  13               	Endpoint_Discard_Stream:
  14               	.LFB84:
  15               		.file 1 "../../protocol/lufa/LUFA-120730/LUFA/Drivers/USB/Core/AVR8/EndpointStream_AVR8.c"
   1:../../protocol/lufa/LUFA-120730/LUFA/Drivers/USB/Core/AVR8/EndpointStream_AVR8.c **** /*
   2:../../protocol/lufa/LUFA-120730/LUFA/Drivers/USB/Core/AVR8/EndpointStream_AVR8.c ****              LUFA Library
   3:../../protocol/lufa/LUFA-120730/LUFA/Drivers/USB/Core/AVR8/EndpointStream_AVR8.c ****      Copyright (C) Dean Camera, 2012.
   4:../../protocol/lufa/LUFA-120730/LUFA/Drivers/USB/Core/AVR8/EndpointStream_AVR8.c ****               
   5:../../protocol/lufa/LUFA-120730/LUFA/Drivers/USB/Core/AVR8/EndpointStream_AVR8.c ****   dean [at] fourwalledcubicle [dot] com
   6:../../protocol/lufa/LUFA-120730/LUFA/Drivers/USB/Core/AVR8/EndpointStream_AVR8.c ****            www.lufa-lib.org
   7:../../protocol/lufa/LUFA-120730/LUFA/Drivers/USB/Core/AVR8/EndpointStream_AVR8.c **** */
   8:../../protocol/lufa/LUFA-120730/LUFA/Drivers/USB/Core/AVR8/EndpointStream_AVR8.c **** 
   9:../../protocol/lufa/LUFA-120730/LUFA/Drivers/USB/Core/AVR8/EndpointStream_AVR8.c **** /*
  10:../../protocol/lufa/LUFA-120730/LUFA/Drivers/USB/Core/AVR8/EndpointStream_AVR8.c ****   Copyright 2012  Dean Camera (dean [at] fourwalledcubicle [dot] com)
  11:../../protocol/lufa/LUFA-120730/LUFA/Drivers/USB/Core/AVR8/EndpointStream_AVR8.c **** 
  12:../../protocol/lufa/LUFA-120730/LUFA/Drivers/USB/Core/AVR8/EndpointStream_AVR8.c ****   Permission to use, copy, modify, distribute, and sell this 
  13:../../protocol/lufa/LUFA-120730/LUFA/Drivers/USB/Core/AVR8/EndpointStream_AVR8.c ****   software and its documentation for any purpose is hereby granted
  14:../../protocol/lufa/LUFA-120730/LUFA/Drivers/USB/Core/AVR8/EndpointStream_AVR8.c ****   without fee, provided that the above copyright notice appear in 
  15:../../protocol/lufa/LUFA-120730/LUFA/Drivers/USB/Core/AVR8/EndpointStream_AVR8.c ****   all copies and that both that the copyright notice and this
  16:../../protocol/lufa/LUFA-120730/LUFA/Drivers/USB/Core/AVR8/EndpointStream_AVR8.c ****   permission notice and warranty disclaimer appear in supporting 
  17:../../protocol/lufa/LUFA-120730/LUFA/Drivers/USB/Core/AVR8/EndpointStream_AVR8.c ****   documentation, and that the name of the author not be used in 
  18:../../protocol/lufa/LUFA-120730/LUFA/Drivers/USB/Core/AVR8/EndpointStream_AVR8.c ****   advertising or publicity pertaining to distribution of the 
  19:../../protocol/lufa/LUFA-120730/LUFA/Drivers/USB/Core/AVR8/EndpointStream_AVR8.c ****   software without specific, written prior permission.
  20:../../protocol/lufa/LUFA-120730/LUFA/Drivers/USB/Core/AVR8/EndpointStream_AVR8.c **** 
  21:../../protocol/lufa/LUFA-120730/LUFA/Drivers/USB/Core/AVR8/EndpointStream_AVR8.c ****   The author disclaim all warranties with regard to this
  22:../../protocol/lufa/LUFA-120730/LUFA/Drivers/USB/Core/AVR8/EndpointStream_AVR8.c ****   software, including all implied warranties of merchantability
  23:../../protocol/lufa/LUFA-120730/LUFA/Drivers/USB/Core/AVR8/EndpointStream_AVR8.c ****   and fitness.  In no event shall the author be liable for any
  24:../../protocol/lufa/LUFA-120730/LUFA/Drivers/USB/Core/AVR8/EndpointStream_AVR8.c ****   special, indirect or consequential damages or any damages
  25:../../protocol/lufa/LUFA-120730/LUFA/Drivers/USB/Core/AVR8/EndpointStream_AVR8.c ****   whatsoever resulting from loss of use, data or profits, whether
  26:../../protocol/lufa/LUFA-120730/LUFA/Drivers/USB/Core/AVR8/EndpointStream_AVR8.c ****   in an action of contract, negligence or other tortious action,
  27:../../protocol/lufa/LUFA-120730/LUFA/Drivers/USB/Core/AVR8/EndpointStream_AVR8.c ****   arising out of or in connection with the use or performance of
  28:../../protocol/lufa/LUFA-120730/LUFA/Drivers/USB/Core/AVR8/EndpointStream_AVR8.c ****   this software.
  29:../../protocol/lufa/LUFA-120730/LUFA/Drivers/USB/Core/AVR8/EndpointStream_AVR8.c **** */
  30:../../protocol/lufa/LUFA-120730/LUFA/Drivers/USB/Core/AVR8/EndpointStream_AVR8.c **** 
  31:../../protocol/lufa/LUFA-120730/LUFA/Drivers/USB/Core/AVR8/EndpointStream_AVR8.c **** #include "../../../../Common/Common.h"
  32:../../protocol/lufa/LUFA-120730/LUFA/Drivers/USB/Core/AVR8/EndpointStream_AVR8.c **** #if (ARCH == ARCH_AVR8)
  33:../../protocol/lufa/LUFA-120730/LUFA/Drivers/USB/Core/AVR8/EndpointStream_AVR8.c **** 
  34:../../protocol/lufa/LUFA-120730/LUFA/Drivers/USB/Core/AVR8/EndpointStream_AVR8.c **** #define  __INCLUDE_FROM_USB_DRIVER
  35:../../protocol/lufa/LUFA-120730/LUFA/Drivers/USB/Core/AVR8/EndpointStream_AVR8.c **** #include "../USBMode.h"
  36:../../protocol/lufa/LUFA-120730/LUFA/Drivers/USB/Core/AVR8/EndpointStream_AVR8.c **** 
  37:../../protocol/lufa/LUFA-120730/LUFA/Drivers/USB/Core/AVR8/EndpointStream_AVR8.c **** #if defined(USB_CAN_BE_DEVICE)
  38:../../protocol/lufa/LUFA-120730/LUFA/Drivers/USB/Core/AVR8/EndpointStream_AVR8.c **** 
  39:../../protocol/lufa/LUFA-120730/LUFA/Drivers/USB/Core/AVR8/EndpointStream_AVR8.c **** #include "EndpointStream_AVR8.h"
  40:../../protocol/lufa/LUFA-120730/LUFA/Drivers/USB/Core/AVR8/EndpointStream_AVR8.c **** 
  41:../../protocol/lufa/LUFA-120730/LUFA/Drivers/USB/Core/AVR8/EndpointStream_AVR8.c **** #if !defined(CONTROL_ONLY_DEVICE)
  42:../../protocol/lufa/LUFA-120730/LUFA/Drivers/USB/Core/AVR8/EndpointStream_AVR8.c **** uint8_t Endpoint_Discard_Stream(uint16_t Length,
  43:../../protocol/lufa/LUFA-120730/LUFA/Drivers/USB/Core/AVR8/EndpointStream_AVR8.c ****                                 uint16_t* const BytesProcessed)
  44:../../protocol/lufa/LUFA-120730/LUFA/Drivers/USB/Core/AVR8/EndpointStream_AVR8.c **** {
  16               		.loc 1 44 0
  17               		.cfi_startproc
  18               	.LVL0:
  19 0000 EF92      		push r14
  20               	.LCFI0:
  21               		.cfi_def_cfa_offset 3
  22               		.cfi_offset 14, -2
  23 0002 FF92      		push r15
  24               	.LCFI1:
  25               		.cfi_def_cfa_offset 4
  26               		.cfi_offset 15, -3
  27 0004 0F93      		push r16
  28               	.LCFI2:
  29               		.cfi_def_cfa_offset 5
  30               		.cfi_offset 16, -4
  31 0006 1F93      		push r17
  32               	.LCFI3:
  33               		.cfi_def_cfa_offset 6
  34               		.cfi_offset 17, -5
  35 0008 CF93      		push r28
  36               	.LCFI4:
  37               		.cfi_def_cfa_offset 7
  38               		.cfi_offset 28, -6
  39 000a DF93      		push r29
  40               	.LCFI5:
  41               		.cfi_def_cfa_offset 8
  42               		.cfi_offset 29, -7
  43               	/* prologue: function */
  44               	/* frame size = 0 */
  45               	/* stack size = 6 */
  46               	.L__stack_usage = 6
  47 000c 8C01      		movw r16,r24
  48 000e EB01      		movw r28,r22
  49               	.LVL1:
  45:../../protocol/lufa/LUFA-120730/LUFA/Drivers/USB/Core/AVR8/EndpointStream_AVR8.c **** 	uint8_t  ErrorCode;
  46:../../protocol/lufa/LUFA-120730/LUFA/Drivers/USB/Core/AVR8/EndpointStream_AVR8.c **** 	uint16_t BytesInTransfer = 0;
  47:../../protocol/lufa/LUFA-120730/LUFA/Drivers/USB/Core/AVR8/EndpointStream_AVR8.c **** 	
  48:../../protocol/lufa/LUFA-120730/LUFA/Drivers/USB/Core/AVR8/EndpointStream_AVR8.c **** 	if ((ErrorCode = Endpoint_WaitUntilReady()))
  50               		.loc 1 48 0
  51 0010 0E94 0000 		call Endpoint_WaitUntilReady
  52               	.LVL2:
  53 0014 8111      		cpse r24,__zero_reg__
  54 0016 00C0      		rjmp .L2
  49:../../protocol/lufa/LUFA-120730/LUFA/Drivers/USB/Core/AVR8/EndpointStream_AVR8.c **** 	  return ErrorCode;
  50:../../protocol/lufa/LUFA-120730/LUFA/Drivers/USB/Core/AVR8/EndpointStream_AVR8.c **** 	  
  51:../../protocol/lufa/LUFA-120730/LUFA/Drivers/USB/Core/AVR8/EndpointStream_AVR8.c **** 	if (BytesProcessed != NULL)
  55               		.loc 1 51 0
  56 0018 2097      		sbiw r28,0
  57 001a 01F0      		breq .L3
  52:../../protocol/lufa/LUFA-120730/LUFA/Drivers/USB/Core/AVR8/EndpointStream_AVR8.c **** 	  Length -= *BytesProcessed;
  58               		.loc 1 52 0
  59 001c 8881      		ld r24,Y
  60 001e 9981      		ldd r25,Y+1
  61               	.LVL3:
  62 0020 081B      		sub r16,r24
  63 0022 190B      		sbc r17,r25
  64               	.LVL4:
  65               	.L3:
  44:../../protocol/lufa/LUFA-120730/LUFA/Drivers/USB/Core/AVR8/EndpointStream_AVR8.c **** {
  66               		.loc 1 44 0 discriminator 1
  67 0024 E12C      		mov r14,__zero_reg__
  68 0026 F12C      		mov r15,__zero_reg__
  69               	.LVL5:
  70               	.L4:
  53:../../protocol/lufa/LUFA-120730/LUFA/Drivers/USB/Core/AVR8/EndpointStream_AVR8.c **** 
  54:../../protocol/lufa/LUFA-120730/LUFA/Drivers/USB/Core/AVR8/EndpointStream_AVR8.c **** 	while (Length)
  71               		.loc 1 54 0 discriminator 1
  72 0028 0115      		cp r16,__zero_reg__
  73 002a 1105      		cpc r17,__zero_reg__
  74 002c 01F0      		breq .L15
  75               	.LBB256:
  76               	.LBB257:
  77               		.file 2 "../../protocol/lufa/LUFA-120730/LUFA/Drivers/USB/Core/AVR8/../AVR8/../AVR8/Endpoint_AVR8.
   1:../../protocol/lufa/LUFA-120730/LUFA/Drivers/USB/Core/AVR8/../AVR8/../AVR8/Endpoint_AVR8.h **** /*
   2:../../protocol/lufa/LUFA-120730/LUFA/Drivers/USB/Core/AVR8/../AVR8/../AVR8/Endpoint_AVR8.h ****              LUFA Library
   3:../../protocol/lufa/LUFA-120730/LUFA/Drivers/USB/Core/AVR8/../AVR8/../AVR8/Endpoint_AVR8.h ****      Copyright (C) Dean Camera, 2012.
   4:../../protocol/lufa/LUFA-120730/LUFA/Drivers/USB/Core/AVR8/../AVR8/../AVR8/Endpoint_AVR8.h **** 
   5:../../protocol/lufa/LUFA-120730/LUFA/Drivers/USB/Core/AVR8/../AVR8/../AVR8/Endpoint_AVR8.h ****   dean [at] fourwalledcubicle [dot] com
   6:../../protocol/lufa/LUFA-120730/LUFA/Drivers/USB/Core/AVR8/../AVR8/../AVR8/Endpoint_AVR8.h ****            www.lufa-lib.org
   7:../../protocol/lufa/LUFA-120730/LUFA/Drivers/USB/Core/AVR8/../AVR8/../AVR8/Endpoint_AVR8.h **** */
   8:../../protocol/lufa/LUFA-120730/LUFA/Drivers/USB/Core/AVR8/../AVR8/../AVR8/Endpoint_AVR8.h **** 
   9:../../protocol/lufa/LUFA-120730/LUFA/Drivers/USB/Core/AVR8/../AVR8/../AVR8/Endpoint_AVR8.h **** /*
  10:../../protocol/lufa/LUFA-120730/LUFA/Drivers/USB/Core/AVR8/../AVR8/../AVR8/Endpoint_AVR8.h ****   Copyright 2012  Dean Camera (dean [at] fourwalledcubicle [dot] com)
  11:../../protocol/lufa/LUFA-120730/LUFA/Drivers/USB/Core/AVR8/../AVR8/../AVR8/Endpoint_AVR8.h **** 
  12:../../protocol/lufa/LUFA-120730/LUFA/Drivers/USB/Core/AVR8/../AVR8/../AVR8/Endpoint_AVR8.h ****   Permission to use, copy, modify, distribute, and sell this
  13:../../protocol/lufa/LUFA-120730/LUFA/Drivers/USB/Core/AVR8/../AVR8/../AVR8/Endpoint_AVR8.h ****   software and its documentation for any purpose is hereby granted
  14:../../protocol/lufa/LUFA-120730/LUFA/Drivers/USB/Core/AVR8/../AVR8/../AVR8/Endpoint_AVR8.h ****   without fee, provided that the above copyright notice appear in
  15:../../protocol/lufa/LUFA-120730/LUFA/Drivers/USB/Core/AVR8/../AVR8/../AVR8/Endpoint_AVR8.h ****   all copies and that both that the copyright notice and this
  16:../../protocol/lufa/LUFA-120730/LUFA/Drivers/USB/Core/AVR8/../AVR8/../AVR8/Endpoint_AVR8.h ****   permission notice and warranty disclaimer appear in supporting
  17:../../protocol/lufa/LUFA-120730/LUFA/Drivers/USB/Core/AVR8/../AVR8/../AVR8/Endpoint_AVR8.h ****   documentation, and that the name of the author not be used in
  18:../../protocol/lufa/LUFA-120730/LUFA/Drivers/USB/Core/AVR8/../AVR8/../AVR8/Endpoint_AVR8.h ****   advertising or publicity pertaining to distribution of the
  19:../../protocol/lufa/LUFA-120730/LUFA/Drivers/USB/Core/AVR8/../AVR8/../AVR8/Endpoint_AVR8.h ****   software without specific, written prior permission.
  20:../../protocol/lufa/LUFA-120730/LUFA/Drivers/USB/Core/AVR8/../AVR8/../AVR8/Endpoint_AVR8.h **** 
  21:../../protocol/lufa/LUFA-120730/LUFA/Drivers/USB/Core/AVR8/../AVR8/../AVR8/Endpoint_AVR8.h ****   The author disclaim all warranties with regard to this
  22:../../protocol/lufa/LUFA-120730/LUFA/Drivers/USB/Core/AVR8/../AVR8/../AVR8/Endpoint_AVR8.h ****   software, including all implied warranties of merchantability
  23:../../protocol/lufa/LUFA-120730/LUFA/Drivers/USB/Core/AVR8/../AVR8/../AVR8/Endpoint_AVR8.h ****   and fitness.  In no event shall the author be liable for any
  24:../../protocol/lufa/LUFA-120730/LUFA/Drivers/USB/Core/AVR8/../AVR8/../AVR8/Endpoint_AVR8.h ****   special, indirect or consequential damages or any damages
  25:../../protocol/lufa/LUFA-120730/LUFA/Drivers/USB/Core/AVR8/../AVR8/../AVR8/Endpoint_AVR8.h ****   whatsoever resulting from loss of use, data or profits, whether
  26:../../protocol/lufa/LUFA-120730/LUFA/Drivers/USB/Core/AVR8/../AVR8/../AVR8/Endpoint_AVR8.h ****   in an action of contract, negligence or other tortious action,
  27:../../protocol/lufa/LUFA-120730/LUFA/Drivers/USB/Core/AVR8/../AVR8/../AVR8/Endpoint_AVR8.h ****   arising out of or in connection with the use or performance of
  28:../../protocol/lufa/LUFA-120730/LUFA/Drivers/USB/Core/AVR8/../AVR8/../AVR8/Endpoint_AVR8.h ****   this software.
  29:../../protocol/lufa/LUFA-120730/LUFA/Drivers/USB/Core/AVR8/../AVR8/../AVR8/Endpoint_AVR8.h **** */
  30:../../protocol/lufa/LUFA-120730/LUFA/Drivers/USB/Core/AVR8/../AVR8/../AVR8/Endpoint_AVR8.h **** 
  31:../../protocol/lufa/LUFA-120730/LUFA/Drivers/USB/Core/AVR8/../AVR8/../AVR8/Endpoint_AVR8.h **** /** \file
  32:../../protocol/lufa/LUFA-120730/LUFA/Drivers/USB/Core/AVR8/../AVR8/../AVR8/Endpoint_AVR8.h ****  *  \brief USB Endpoint definitions for the AVR8 microcontrollers.
  33:../../protocol/lufa/LUFA-120730/LUFA/Drivers/USB/Core/AVR8/../AVR8/../AVR8/Endpoint_AVR8.h ****  *  \copydetails Group_EndpointManagement_AVR8
  34:../../protocol/lufa/LUFA-120730/LUFA/Drivers/USB/Core/AVR8/../AVR8/../AVR8/Endpoint_AVR8.h ****  *
  35:../../protocol/lufa/LUFA-120730/LUFA/Drivers/USB/Core/AVR8/../AVR8/../AVR8/Endpoint_AVR8.h ****  *  \note This file should not be included directly. It is automatically included as needed by the 
  36:../../protocol/lufa/LUFA-120730/LUFA/Drivers/USB/Core/AVR8/../AVR8/../AVR8/Endpoint_AVR8.h ****  *        dispatch header located in LUFA/Drivers/USB/USB.h.
  37:../../protocol/lufa/LUFA-120730/LUFA/Drivers/USB/Core/AVR8/../AVR8/../AVR8/Endpoint_AVR8.h ****  */
  38:../../protocol/lufa/LUFA-120730/LUFA/Drivers/USB/Core/AVR8/../AVR8/../AVR8/Endpoint_AVR8.h **** 
  39:../../protocol/lufa/LUFA-120730/LUFA/Drivers/USB/Core/AVR8/../AVR8/../AVR8/Endpoint_AVR8.h **** /** \ingroup Group_EndpointRW
  40:../../protocol/lufa/LUFA-120730/LUFA/Drivers/USB/Core/AVR8/../AVR8/../AVR8/Endpoint_AVR8.h ****  *  \defgroup Group_EndpointRW_AVR8 Endpoint Data Reading and Writing (AVR8)
  41:../../protocol/lufa/LUFA-120730/LUFA/Drivers/USB/Core/AVR8/../AVR8/../AVR8/Endpoint_AVR8.h ****  *  \brief Endpoint data read/write definitions for the Atmel AVR8 architecture.
  42:../../protocol/lufa/LUFA-120730/LUFA/Drivers/USB/Core/AVR8/../AVR8/../AVR8/Endpoint_AVR8.h ****  *
  43:../../protocol/lufa/LUFA-120730/LUFA/Drivers/USB/Core/AVR8/../AVR8/../AVR8/Endpoint_AVR8.h ****  *  Functions, macros, variables, enums and types related to data reading and writing from and to e
  44:../../protocol/lufa/LUFA-120730/LUFA/Drivers/USB/Core/AVR8/../AVR8/../AVR8/Endpoint_AVR8.h ****  */
  45:../../protocol/lufa/LUFA-120730/LUFA/Drivers/USB/Core/AVR8/../AVR8/../AVR8/Endpoint_AVR8.h **** 
  46:../../protocol/lufa/LUFA-120730/LUFA/Drivers/USB/Core/AVR8/../AVR8/../AVR8/Endpoint_AVR8.h **** /** \ingroup Group_EndpointPrimitiveRW
  47:../../protocol/lufa/LUFA-120730/LUFA/Drivers/USB/Core/AVR8/../AVR8/../AVR8/Endpoint_AVR8.h ****  *  \defgroup Group_EndpointPrimitiveRW_AVR8 Read/Write of Primitive Data Types (AVR8)
  48:../../protocol/lufa/LUFA-120730/LUFA/Drivers/USB/Core/AVR8/../AVR8/../AVR8/Endpoint_AVR8.h ****  *  \brief Endpoint primitive read/write definitions for the Atmel AVR8 architecture.
  49:../../protocol/lufa/LUFA-120730/LUFA/Drivers/USB/Core/AVR8/../AVR8/../AVR8/Endpoint_AVR8.h ****  *
  50:../../protocol/lufa/LUFA-120730/LUFA/Drivers/USB/Core/AVR8/../AVR8/../AVR8/Endpoint_AVR8.h ****  *  Functions, macros, variables, enums and types related to data reading and writing of primitive 
  51:../../protocol/lufa/LUFA-120730/LUFA/Drivers/USB/Core/AVR8/../AVR8/../AVR8/Endpoint_AVR8.h ****  *  from and to endpoints.
  52:../../protocol/lufa/LUFA-120730/LUFA/Drivers/USB/Core/AVR8/../AVR8/../AVR8/Endpoint_AVR8.h ****  */
  53:../../protocol/lufa/LUFA-120730/LUFA/Drivers/USB/Core/AVR8/../AVR8/../AVR8/Endpoint_AVR8.h **** 
  54:../../protocol/lufa/LUFA-120730/LUFA/Drivers/USB/Core/AVR8/../AVR8/../AVR8/Endpoint_AVR8.h **** /** \ingroup Group_EndpointPacketManagement
  55:../../protocol/lufa/LUFA-120730/LUFA/Drivers/USB/Core/AVR8/../AVR8/../AVR8/Endpoint_AVR8.h ****  *  \defgroup Group_EndpointPacketManagement_AVR8 Endpoint Packet Management (AVR8)
  56:../../protocol/lufa/LUFA-120730/LUFA/Drivers/USB/Core/AVR8/../AVR8/../AVR8/Endpoint_AVR8.h ****  *  \brief Endpoint packet management definitions for the Atmel AVR8 architecture.
  57:../../protocol/lufa/LUFA-120730/LUFA/Drivers/USB/Core/AVR8/../AVR8/../AVR8/Endpoint_AVR8.h ****  *
  58:../../protocol/lufa/LUFA-120730/LUFA/Drivers/USB/Core/AVR8/../AVR8/../AVR8/Endpoint_AVR8.h ****  *  Functions, macros, variables, enums and types related to packet management of endpoints.
  59:../../protocol/lufa/LUFA-120730/LUFA/Drivers/USB/Core/AVR8/../AVR8/../AVR8/Endpoint_AVR8.h ****  */
  60:../../protocol/lufa/LUFA-120730/LUFA/Drivers/USB/Core/AVR8/../AVR8/../AVR8/Endpoint_AVR8.h **** 
  61:../../protocol/lufa/LUFA-120730/LUFA/Drivers/USB/Core/AVR8/../AVR8/../AVR8/Endpoint_AVR8.h **** /** \ingroup Group_EndpointManagement
  62:../../protocol/lufa/LUFA-120730/LUFA/Drivers/USB/Core/AVR8/../AVR8/../AVR8/Endpoint_AVR8.h ****  *  \defgroup Group_EndpointManagement_AVR8 Endpoint Management (AVR8)
  63:../../protocol/lufa/LUFA-120730/LUFA/Drivers/USB/Core/AVR8/../AVR8/../AVR8/Endpoint_AVR8.h ****  *  \brief Endpoint management definitions for the Atmel AVR8 architecture.
  64:../../protocol/lufa/LUFA-120730/LUFA/Drivers/USB/Core/AVR8/../AVR8/../AVR8/Endpoint_AVR8.h ****  *
  65:../../protocol/lufa/LUFA-120730/LUFA/Drivers/USB/Core/AVR8/../AVR8/../AVR8/Endpoint_AVR8.h ****  *  Functions, macros and enums related to endpoint management when in USB Device mode. This
  66:../../protocol/lufa/LUFA-120730/LUFA/Drivers/USB/Core/AVR8/../AVR8/../AVR8/Endpoint_AVR8.h ****  *  module contains the endpoint management macros, as well as endpoint interrupt and data
  67:../../protocol/lufa/LUFA-120730/LUFA/Drivers/USB/Core/AVR8/../AVR8/../AVR8/Endpoint_AVR8.h ****  *  send/receive functions for various data types.
  68:../../protocol/lufa/LUFA-120730/LUFA/Drivers/USB/Core/AVR8/../AVR8/../AVR8/Endpoint_AVR8.h ****  *
  69:../../protocol/lufa/LUFA-120730/LUFA/Drivers/USB/Core/AVR8/../AVR8/../AVR8/Endpoint_AVR8.h ****  *  @{
  70:../../protocol/lufa/LUFA-120730/LUFA/Drivers/USB/Core/AVR8/../AVR8/../AVR8/Endpoint_AVR8.h ****  */
  71:../../protocol/lufa/LUFA-120730/LUFA/Drivers/USB/Core/AVR8/../AVR8/../AVR8/Endpoint_AVR8.h **** 
  72:../../protocol/lufa/LUFA-120730/LUFA/Drivers/USB/Core/AVR8/../AVR8/../AVR8/Endpoint_AVR8.h **** #ifndef __ENDPOINT_AVR8_H__
  73:../../protocol/lufa/LUFA-120730/LUFA/Drivers/USB/Core/AVR8/../AVR8/../AVR8/Endpoint_AVR8.h **** #define __ENDPOINT_AVR8_H__
  74:../../protocol/lufa/LUFA-120730/LUFA/Drivers/USB/Core/AVR8/../AVR8/../AVR8/Endpoint_AVR8.h **** 
  75:../../protocol/lufa/LUFA-120730/LUFA/Drivers/USB/Core/AVR8/../AVR8/../AVR8/Endpoint_AVR8.h **** 	/* Includes: */
  76:../../protocol/lufa/LUFA-120730/LUFA/Drivers/USB/Core/AVR8/../AVR8/../AVR8/Endpoint_AVR8.h **** 		#include "../../../../Common/Common.h"
  77:../../protocol/lufa/LUFA-120730/LUFA/Drivers/USB/Core/AVR8/../AVR8/../AVR8/Endpoint_AVR8.h **** 		#include "../USBTask.h"
  78:../../protocol/lufa/LUFA-120730/LUFA/Drivers/USB/Core/AVR8/../AVR8/../AVR8/Endpoint_AVR8.h **** 		#include "../USBInterrupt.h"
  79:../../protocol/lufa/LUFA-120730/LUFA/Drivers/USB/Core/AVR8/../AVR8/../AVR8/Endpoint_AVR8.h **** 
  80:../../protocol/lufa/LUFA-120730/LUFA/Drivers/USB/Core/AVR8/../AVR8/../AVR8/Endpoint_AVR8.h **** 	/* Enable C linkage for C++ Compilers: */
  81:../../protocol/lufa/LUFA-120730/LUFA/Drivers/USB/Core/AVR8/../AVR8/../AVR8/Endpoint_AVR8.h **** 		#if defined(__cplusplus)
  82:../../protocol/lufa/LUFA-120730/LUFA/Drivers/USB/Core/AVR8/../AVR8/../AVR8/Endpoint_AVR8.h **** 			extern "C" {
  83:../../protocol/lufa/LUFA-120730/LUFA/Drivers/USB/Core/AVR8/../AVR8/../AVR8/Endpoint_AVR8.h **** 		#endif
  84:../../protocol/lufa/LUFA-120730/LUFA/Drivers/USB/Core/AVR8/../AVR8/../AVR8/Endpoint_AVR8.h **** 
  85:../../protocol/lufa/LUFA-120730/LUFA/Drivers/USB/Core/AVR8/../AVR8/../AVR8/Endpoint_AVR8.h **** 	/* Preprocessor Checks: */
  86:../../protocol/lufa/LUFA-120730/LUFA/Drivers/USB/Core/AVR8/../AVR8/../AVR8/Endpoint_AVR8.h **** 		#if !defined(__INCLUDE_FROM_USB_DRIVER)
  87:../../protocol/lufa/LUFA-120730/LUFA/Drivers/USB/Core/AVR8/../AVR8/../AVR8/Endpoint_AVR8.h **** 			#error Do not include this file directly. Include LUFA/Drivers/USB/USB.h instead.
  88:../../protocol/lufa/LUFA-120730/LUFA/Drivers/USB/Core/AVR8/../AVR8/../AVR8/Endpoint_AVR8.h **** 		#endif
  89:../../protocol/lufa/LUFA-120730/LUFA/Drivers/USB/Core/AVR8/../AVR8/../AVR8/Endpoint_AVR8.h **** 
  90:../../protocol/lufa/LUFA-120730/LUFA/Drivers/USB/Core/AVR8/../AVR8/../AVR8/Endpoint_AVR8.h **** 	/* Private Interface - For use in library only: */
  91:../../protocol/lufa/LUFA-120730/LUFA/Drivers/USB/Core/AVR8/../AVR8/../AVR8/Endpoint_AVR8.h **** 	#if !defined(__DOXYGEN__)
  92:../../protocol/lufa/LUFA-120730/LUFA/Drivers/USB/Core/AVR8/../AVR8/../AVR8/Endpoint_AVR8.h **** 		/* Inline Functions: */
  93:../../protocol/lufa/LUFA-120730/LUFA/Drivers/USB/Core/AVR8/../AVR8/../AVR8/Endpoint_AVR8.h **** 			static inline uint8_t Endpoint_BytesToEPSizeMask(const uint16_t Bytes) ATTR_WARN_UNUSED_RESULT A
  94:../../protocol/lufa/LUFA-120730/LUFA/Drivers/USB/Core/AVR8/../AVR8/../AVR8/Endpoint_AVR8.h **** 			                                                                       ATTR_ALWAYS_INLINE;
  95:../../protocol/lufa/LUFA-120730/LUFA/Drivers/USB/Core/AVR8/../AVR8/../AVR8/Endpoint_AVR8.h **** 			static inline uint8_t Endpoint_BytesToEPSizeMask(const uint16_t Bytes)
  96:../../protocol/lufa/LUFA-120730/LUFA/Drivers/USB/Core/AVR8/../AVR8/../AVR8/Endpoint_AVR8.h **** 			{
  97:../../protocol/lufa/LUFA-120730/LUFA/Drivers/USB/Core/AVR8/../AVR8/../AVR8/Endpoint_AVR8.h **** 				uint8_t  MaskVal    = 0;
  98:../../protocol/lufa/LUFA-120730/LUFA/Drivers/USB/Core/AVR8/../AVR8/../AVR8/Endpoint_AVR8.h **** 				uint16_t CheckBytes = 8;
  99:../../protocol/lufa/LUFA-120730/LUFA/Drivers/USB/Core/AVR8/../AVR8/../AVR8/Endpoint_AVR8.h **** 
 100:../../protocol/lufa/LUFA-120730/LUFA/Drivers/USB/Core/AVR8/../AVR8/../AVR8/Endpoint_AVR8.h **** 				while (CheckBytes < Bytes)
 101:../../protocol/lufa/LUFA-120730/LUFA/Drivers/USB/Core/AVR8/../AVR8/../AVR8/Endpoint_AVR8.h **** 				{
 102:../../protocol/lufa/LUFA-120730/LUFA/Drivers/USB/Core/AVR8/../AVR8/../AVR8/Endpoint_AVR8.h **** 					MaskVal++;
 103:../../protocol/lufa/LUFA-120730/LUFA/Drivers/USB/Core/AVR8/../AVR8/../AVR8/Endpoint_AVR8.h **** 					CheckBytes <<= 1;
 104:../../protocol/lufa/LUFA-120730/LUFA/Drivers/USB/Core/AVR8/../AVR8/../AVR8/Endpoint_AVR8.h **** 				}
 105:../../protocol/lufa/LUFA-120730/LUFA/Drivers/USB/Core/AVR8/../AVR8/../AVR8/Endpoint_AVR8.h **** 
 106:../../protocol/lufa/LUFA-120730/LUFA/Drivers/USB/Core/AVR8/../AVR8/../AVR8/Endpoint_AVR8.h **** 				return (MaskVal << EPSIZE0);
 107:../../protocol/lufa/LUFA-120730/LUFA/Drivers/USB/Core/AVR8/../AVR8/../AVR8/Endpoint_AVR8.h **** 			}
 108:../../protocol/lufa/LUFA-120730/LUFA/Drivers/USB/Core/AVR8/../AVR8/../AVR8/Endpoint_AVR8.h **** 
 109:../../protocol/lufa/LUFA-120730/LUFA/Drivers/USB/Core/AVR8/../AVR8/../AVR8/Endpoint_AVR8.h **** 		/* Function Prototypes: */
 110:../../protocol/lufa/LUFA-120730/LUFA/Drivers/USB/Core/AVR8/../AVR8/../AVR8/Endpoint_AVR8.h **** 			void Endpoint_ClearEndpoints(void);
 111:../../protocol/lufa/LUFA-120730/LUFA/Drivers/USB/Core/AVR8/../AVR8/../AVR8/Endpoint_AVR8.h **** 			bool Endpoint_ConfigureEndpoint_Prv(const uint8_t Number,
 112:../../protocol/lufa/LUFA-120730/LUFA/Drivers/USB/Core/AVR8/../AVR8/../AVR8/Endpoint_AVR8.h **** 			                                    const uint8_t UECFG0XData,
 113:../../protocol/lufa/LUFA-120730/LUFA/Drivers/USB/Core/AVR8/../AVR8/../AVR8/Endpoint_AVR8.h **** 			                                    const uint8_t UECFG1XData);
 114:../../protocol/lufa/LUFA-120730/LUFA/Drivers/USB/Core/AVR8/../AVR8/../AVR8/Endpoint_AVR8.h **** 
 115:../../protocol/lufa/LUFA-120730/LUFA/Drivers/USB/Core/AVR8/../AVR8/../AVR8/Endpoint_AVR8.h **** 	#endif
 116:../../protocol/lufa/LUFA-120730/LUFA/Drivers/USB/Core/AVR8/../AVR8/../AVR8/Endpoint_AVR8.h **** 
 117:../../protocol/lufa/LUFA-120730/LUFA/Drivers/USB/Core/AVR8/../AVR8/../AVR8/Endpoint_AVR8.h **** 	/* Public Interface - May be used in end-application: */
 118:../../protocol/lufa/LUFA-120730/LUFA/Drivers/USB/Core/AVR8/../AVR8/../AVR8/Endpoint_AVR8.h **** 		/* Macros: */
 119:../../protocol/lufa/LUFA-120730/LUFA/Drivers/USB/Core/AVR8/../AVR8/../AVR8/Endpoint_AVR8.h **** 			#if (!defined(FIXED_CONTROL_ENDPOINT_SIZE) || defined(__DOXYGEN__))
 120:../../protocol/lufa/LUFA-120730/LUFA/Drivers/USB/Core/AVR8/../AVR8/../AVR8/Endpoint_AVR8.h **** 				/** Default size of the default control endpoint's bank, until altered by the control endpoint 
 121:../../protocol/lufa/LUFA-120730/LUFA/Drivers/USB/Core/AVR8/../AVR8/../AVR8/Endpoint_AVR8.h **** 				 *  value in the device descriptor. Not available if the \c FIXED_CONTROL_ENDPOINT_SIZE token i
 122:../../protocol/lufa/LUFA-120730/LUFA/Drivers/USB/Core/AVR8/../AVR8/../AVR8/Endpoint_AVR8.h **** 				 */
 123:../../protocol/lufa/LUFA-120730/LUFA/Drivers/USB/Core/AVR8/../AVR8/../AVR8/Endpoint_AVR8.h **** 				#define ENDPOINT_CONTROLEP_DEFAULT_SIZE     8
 124:../../protocol/lufa/LUFA-120730/LUFA/Drivers/USB/Core/AVR8/../AVR8/../AVR8/Endpoint_AVR8.h **** 			#endif
 125:../../protocol/lufa/LUFA-120730/LUFA/Drivers/USB/Core/AVR8/../AVR8/../AVR8/Endpoint_AVR8.h **** 
 126:../../protocol/lufa/LUFA-120730/LUFA/Drivers/USB/Core/AVR8/../AVR8/../AVR8/Endpoint_AVR8.h **** 			#if !defined(CONTROL_ONLY_DEVICE) || defined(__DOXYGEN__)
 127:../../protocol/lufa/LUFA-120730/LUFA/Drivers/USB/Core/AVR8/../AVR8/../AVR8/Endpoint_AVR8.h **** 				#if defined(USB_SERIES_4_AVR) || defined(USB_SERIES_6_AVR) || defined(USB_SERIES_7_AVR)
 128:../../protocol/lufa/LUFA-120730/LUFA/Drivers/USB/Core/AVR8/../AVR8/../AVR8/Endpoint_AVR8.h **** 					#define ENDPOINT_TOTAL_ENDPOINTS        7
 129:../../protocol/lufa/LUFA-120730/LUFA/Drivers/USB/Core/AVR8/../AVR8/../AVR8/Endpoint_AVR8.h **** 				#else
 130:../../protocol/lufa/LUFA-120730/LUFA/Drivers/USB/Core/AVR8/../AVR8/../AVR8/Endpoint_AVR8.h **** 					/** Total number of endpoints (including the default control endpoint at address 0) which may
 131:../../protocol/lufa/LUFA-120730/LUFA/Drivers/USB/Core/AVR8/../AVR8/../AVR8/Endpoint_AVR8.h **** 					 *  be used in the device. Different USB AVR models support different amounts of endpoints,
 132:../../protocol/lufa/LUFA-120730/LUFA/Drivers/USB/Core/AVR8/../AVR8/../AVR8/Endpoint_AVR8.h **** 					 *  this value reflects the maximum number of endpoints for the currently selected AVR model.
 133:../../protocol/lufa/LUFA-120730/LUFA/Drivers/USB/Core/AVR8/../AVR8/../AVR8/Endpoint_AVR8.h **** 					 */
 134:../../protocol/lufa/LUFA-120730/LUFA/Drivers/USB/Core/AVR8/../AVR8/../AVR8/Endpoint_AVR8.h **** 					#define ENDPOINT_TOTAL_ENDPOINTS        5
 135:../../protocol/lufa/LUFA-120730/LUFA/Drivers/USB/Core/AVR8/../AVR8/../AVR8/Endpoint_AVR8.h **** 				#endif
 136:../../protocol/lufa/LUFA-120730/LUFA/Drivers/USB/Core/AVR8/../AVR8/../AVR8/Endpoint_AVR8.h **** 			#else
 137:../../protocol/lufa/LUFA-120730/LUFA/Drivers/USB/Core/AVR8/../AVR8/../AVR8/Endpoint_AVR8.h **** 				#define ENDPOINT_TOTAL_ENDPOINTS            1
 138:../../protocol/lufa/LUFA-120730/LUFA/Drivers/USB/Core/AVR8/../AVR8/../AVR8/Endpoint_AVR8.h **** 			#endif
 139:../../protocol/lufa/LUFA-120730/LUFA/Drivers/USB/Core/AVR8/../AVR8/../AVR8/Endpoint_AVR8.h **** 
 140:../../protocol/lufa/LUFA-120730/LUFA/Drivers/USB/Core/AVR8/../AVR8/../AVR8/Endpoint_AVR8.h **** 		/* Enums: */
 141:../../protocol/lufa/LUFA-120730/LUFA/Drivers/USB/Core/AVR8/../AVR8/../AVR8/Endpoint_AVR8.h **** 			/** Enum for the possible error return codes of the \ref Endpoint_WaitUntilReady() function.
 142:../../protocol/lufa/LUFA-120730/LUFA/Drivers/USB/Core/AVR8/../AVR8/../AVR8/Endpoint_AVR8.h **** 			 *
 143:../../protocol/lufa/LUFA-120730/LUFA/Drivers/USB/Core/AVR8/../AVR8/../AVR8/Endpoint_AVR8.h **** 			 *  \ingroup Group_EndpointRW_AVR8
 144:../../protocol/lufa/LUFA-120730/LUFA/Drivers/USB/Core/AVR8/../AVR8/../AVR8/Endpoint_AVR8.h **** 			 */
 145:../../protocol/lufa/LUFA-120730/LUFA/Drivers/USB/Core/AVR8/../AVR8/../AVR8/Endpoint_AVR8.h **** 			enum Endpoint_WaitUntilReady_ErrorCodes_t
 146:../../protocol/lufa/LUFA-120730/LUFA/Drivers/USB/Core/AVR8/../AVR8/../AVR8/Endpoint_AVR8.h **** 			{
 147:../../protocol/lufa/LUFA-120730/LUFA/Drivers/USB/Core/AVR8/../AVR8/../AVR8/Endpoint_AVR8.h **** 				ENDPOINT_READYWAIT_NoError                 = 0, /**< Endpoint is ready for next packet, no erro
 148:../../protocol/lufa/LUFA-120730/LUFA/Drivers/USB/Core/AVR8/../AVR8/../AVR8/Endpoint_AVR8.h **** 				ENDPOINT_READYWAIT_EndpointStalled         = 1, /**< The endpoint was stalled during the stream
 149:../../protocol/lufa/LUFA-120730/LUFA/Drivers/USB/Core/AVR8/../AVR8/../AVR8/Endpoint_AVR8.h **** 				                                                 *   transfer by the host or device.
 150:../../protocol/lufa/LUFA-120730/LUFA/Drivers/USB/Core/AVR8/../AVR8/../AVR8/Endpoint_AVR8.h **** 				                                                 */
 151:../../protocol/lufa/LUFA-120730/LUFA/Drivers/USB/Core/AVR8/../AVR8/../AVR8/Endpoint_AVR8.h **** 				ENDPOINT_READYWAIT_DeviceDisconnected      = 2,	/**< Device was disconnected from the host whil
 152:../../protocol/lufa/LUFA-120730/LUFA/Drivers/USB/Core/AVR8/../AVR8/../AVR8/Endpoint_AVR8.h **** 				                                                 *   waiting for the endpoint to become ready.
 153:../../protocol/lufa/LUFA-120730/LUFA/Drivers/USB/Core/AVR8/../AVR8/../AVR8/Endpoint_AVR8.h **** 				                                                 */
 154:../../protocol/lufa/LUFA-120730/LUFA/Drivers/USB/Core/AVR8/../AVR8/../AVR8/Endpoint_AVR8.h **** 				ENDPOINT_READYWAIT_BusSuspended            = 3, /**< The USB bus has been suspended by the host
 155:../../protocol/lufa/LUFA-120730/LUFA/Drivers/USB/Core/AVR8/../AVR8/../AVR8/Endpoint_AVR8.h **** 				                                                 *   no USB endpoint traffic can occur until th
 156:../../protocol/lufa/LUFA-120730/LUFA/Drivers/USB/Core/AVR8/../AVR8/../AVR8/Endpoint_AVR8.h **** 				                                                 *   has resumed.
 157:../../protocol/lufa/LUFA-120730/LUFA/Drivers/USB/Core/AVR8/../AVR8/../AVR8/Endpoint_AVR8.h **** 				                                                 */
 158:../../protocol/lufa/LUFA-120730/LUFA/Drivers/USB/Core/AVR8/../AVR8/../AVR8/Endpoint_AVR8.h **** 				ENDPOINT_READYWAIT_Timeout                 = 4, /**< The host failed to accept or send the next
 159:../../protocol/lufa/LUFA-120730/LUFA/Drivers/USB/Core/AVR8/../AVR8/../AVR8/Endpoint_AVR8.h **** 				                                                 *   within the software timeout period set by 
 160:../../protocol/lufa/LUFA-120730/LUFA/Drivers/USB/Core/AVR8/../AVR8/../AVR8/Endpoint_AVR8.h **** 				                                                 *   \ref USB_STREAM_TIMEOUT_MS macro.
 161:../../protocol/lufa/LUFA-120730/LUFA/Drivers/USB/Core/AVR8/../AVR8/../AVR8/Endpoint_AVR8.h **** 				                                                 */
 162:../../protocol/lufa/LUFA-120730/LUFA/Drivers/USB/Core/AVR8/../AVR8/../AVR8/Endpoint_AVR8.h **** 			};
 163:../../protocol/lufa/LUFA-120730/LUFA/Drivers/USB/Core/AVR8/../AVR8/../AVR8/Endpoint_AVR8.h **** 
 164:../../protocol/lufa/LUFA-120730/LUFA/Drivers/USB/Core/AVR8/../AVR8/../AVR8/Endpoint_AVR8.h **** 		/* Inline Functions: */
 165:../../protocol/lufa/LUFA-120730/LUFA/Drivers/USB/Core/AVR8/../AVR8/../AVR8/Endpoint_AVR8.h **** 			/** Configures the specified endpoint address with the given endpoint type, bank size and number
 166:../../protocol/lufa/LUFA-120730/LUFA/Drivers/USB/Core/AVR8/../AVR8/../AVR8/Endpoint_AVR8.h **** 			 *  banks. Once configured, the endpoint may be read from or written to, depending on its direct
 167:../../protocol/lufa/LUFA-120730/LUFA/Drivers/USB/Core/AVR8/../AVR8/../AVR8/Endpoint_AVR8.h **** 			 *
 168:../../protocol/lufa/LUFA-120730/LUFA/Drivers/USB/Core/AVR8/../AVR8/../AVR8/Endpoint_AVR8.h **** 			 *  \param[in] Address    Endpoint address to configure.
 169:../../protocol/lufa/LUFA-120730/LUFA/Drivers/USB/Core/AVR8/../AVR8/../AVR8/Endpoint_AVR8.h **** 			 *
 170:../../protocol/lufa/LUFA-120730/LUFA/Drivers/USB/Core/AVR8/../AVR8/../AVR8/Endpoint_AVR8.h **** 			 *  \param[in] Type       Type of endpoint to configure, a \c EP_TYPE_* mask. Not all endpoint t
 171:../../protocol/lufa/LUFA-120730/LUFA/Drivers/USB/Core/AVR8/../AVR8/../AVR8/Endpoint_AVR8.h **** 			 *                        are available on Low Speed USB devices - refer to the USB 2.0 specific
 172:../../protocol/lufa/LUFA-120730/LUFA/Drivers/USB/Core/AVR8/../AVR8/../AVR8/Endpoint_AVR8.h **** 			 *
 173:../../protocol/lufa/LUFA-120730/LUFA/Drivers/USB/Core/AVR8/../AVR8/../AVR8/Endpoint_AVR8.h **** 			 *  \param[in] Size       Size of the endpoint's bank, where packets are stored before they are 
 174:../../protocol/lufa/LUFA-120730/LUFA/Drivers/USB/Core/AVR8/../AVR8/../AVR8/Endpoint_AVR8.h **** 			 *                        to the USB host, or after they have been received from the USB host (d
 175:../../protocol/lufa/LUFA-120730/LUFA/Drivers/USB/Core/AVR8/../AVR8/../AVR8/Endpoint_AVR8.h **** 			 *                        the endpoint's data direction). The bank size must indicate the maximu
 176:../../protocol/lufa/LUFA-120730/LUFA/Drivers/USB/Core/AVR8/../AVR8/../AVR8/Endpoint_AVR8.h **** 			 *                        that the endpoint can handle.
 177:../../protocol/lufa/LUFA-120730/LUFA/Drivers/USB/Core/AVR8/../AVR8/../AVR8/Endpoint_AVR8.h **** 			 *
 178:../../protocol/lufa/LUFA-120730/LUFA/Drivers/USB/Core/AVR8/../AVR8/../AVR8/Endpoint_AVR8.h **** 			 *  \param[in] Banks      Number of banks to use for the endpoint being configured.
 179:../../protocol/lufa/LUFA-120730/LUFA/Drivers/USB/Core/AVR8/../AVR8/../AVR8/Endpoint_AVR8.h **** 			 *
 180:../../protocol/lufa/LUFA-120730/LUFA/Drivers/USB/Core/AVR8/../AVR8/../AVR8/Endpoint_AVR8.h **** 			 *  \attention When the \c ORDERED_EP_CONFIG compile time option is used, Endpoints <b>must</b> 
 181:../../protocol/lufa/LUFA-120730/LUFA/Drivers/USB/Core/AVR8/../AVR8/../AVR8/Endpoint_AVR8.h **** 			 *             ascending order, or bank corruption will occur.
 182:../../protocol/lufa/LUFA-120730/LUFA/Drivers/USB/Core/AVR8/../AVR8/../AVR8/Endpoint_AVR8.h **** 			 *
 183:../../protocol/lufa/LUFA-120730/LUFA/Drivers/USB/Core/AVR8/../AVR8/../AVR8/Endpoint_AVR8.h **** 			 *  \note Different endpoints may have different maximum packet sizes based on the endpoint's in
 184:../../protocol/lufa/LUFA-120730/LUFA/Drivers/USB/Core/AVR8/../AVR8/../AVR8/Endpoint_AVR8.h **** 			 *        refer to the chosen microcontroller model's datasheet to determine the maximum bank si
 185:../../protocol/lufa/LUFA-120730/LUFA/Drivers/USB/Core/AVR8/../AVR8/../AVR8/Endpoint_AVR8.h **** 			 *        \n\n
 186:../../protocol/lufa/LUFA-120730/LUFA/Drivers/USB/Core/AVR8/../AVR8/../AVR8/Endpoint_AVR8.h **** 			 *
 187:../../protocol/lufa/LUFA-120730/LUFA/Drivers/USB/Core/AVR8/../AVR8/../AVR8/Endpoint_AVR8.h **** 			 *  \note The default control endpoint should not be manually configured by the user application
 188:../../protocol/lufa/LUFA-120730/LUFA/Drivers/USB/Core/AVR8/../AVR8/../AVR8/Endpoint_AVR8.h **** 			 *        it is automatically configured by the library internally.
 189:../../protocol/lufa/LUFA-120730/LUFA/Drivers/USB/Core/AVR8/../AVR8/../AVR8/Endpoint_AVR8.h **** 			 *        \n\n
 190:../../protocol/lufa/LUFA-120730/LUFA/Drivers/USB/Core/AVR8/../AVR8/../AVR8/Endpoint_AVR8.h **** 			 *
 191:../../protocol/lufa/LUFA-120730/LUFA/Drivers/USB/Core/AVR8/../AVR8/../AVR8/Endpoint_AVR8.h **** 			 *  \note This routine will automatically select the specified endpoint upon success. Upon failu
 192:../../protocol/lufa/LUFA-120730/LUFA/Drivers/USB/Core/AVR8/../AVR8/../AVR8/Endpoint_AVR8.h **** 			 *        which failed to reconfigure correctly will be selected.
 193:../../protocol/lufa/LUFA-120730/LUFA/Drivers/USB/Core/AVR8/../AVR8/../AVR8/Endpoint_AVR8.h **** 			 *
 194:../../protocol/lufa/LUFA-120730/LUFA/Drivers/USB/Core/AVR8/../AVR8/../AVR8/Endpoint_AVR8.h **** 			 *  \return Boolean \c true if the configuration succeeded, \c false otherwise.
 195:../../protocol/lufa/LUFA-120730/LUFA/Drivers/USB/Core/AVR8/../AVR8/../AVR8/Endpoint_AVR8.h **** 			 */
 196:../../protocol/lufa/LUFA-120730/LUFA/Drivers/USB/Core/AVR8/../AVR8/../AVR8/Endpoint_AVR8.h **** 			static inline bool Endpoint_ConfigureEndpoint(const uint8_t Address,
 197:../../protocol/lufa/LUFA-120730/LUFA/Drivers/USB/Core/AVR8/../AVR8/../AVR8/Endpoint_AVR8.h **** 			                                              const uint8_t Type,
 198:../../protocol/lufa/LUFA-120730/LUFA/Drivers/USB/Core/AVR8/../AVR8/../AVR8/Endpoint_AVR8.h **** 			                                              const uint16_t Size,
 199:../../protocol/lufa/LUFA-120730/LUFA/Drivers/USB/Core/AVR8/../AVR8/../AVR8/Endpoint_AVR8.h **** 			                                              const uint8_t Banks) ATTR_ALWAYS_INLINE;
 200:../../protocol/lufa/LUFA-120730/LUFA/Drivers/USB/Core/AVR8/../AVR8/../AVR8/Endpoint_AVR8.h **** 			static inline bool Endpoint_ConfigureEndpoint(const uint8_t Address,
 201:../../protocol/lufa/LUFA-120730/LUFA/Drivers/USB/Core/AVR8/../AVR8/../AVR8/Endpoint_AVR8.h **** 			                                              const uint8_t Type,
 202:../../protocol/lufa/LUFA-120730/LUFA/Drivers/USB/Core/AVR8/../AVR8/../AVR8/Endpoint_AVR8.h **** 			                                              const uint16_t Size,
 203:../../protocol/lufa/LUFA-120730/LUFA/Drivers/USB/Core/AVR8/../AVR8/../AVR8/Endpoint_AVR8.h **** 			                                              const uint8_t Banks)
 204:../../protocol/lufa/LUFA-120730/LUFA/Drivers/USB/Core/AVR8/../AVR8/../AVR8/Endpoint_AVR8.h **** 			{
 205:../../protocol/lufa/LUFA-120730/LUFA/Drivers/USB/Core/AVR8/../AVR8/../AVR8/Endpoint_AVR8.h **** 				uint8_t Number = (Address & ENDPOINT_EPNUM_MASK);
 206:../../protocol/lufa/LUFA-120730/LUFA/Drivers/USB/Core/AVR8/../AVR8/../AVR8/Endpoint_AVR8.h **** 			
 207:../../protocol/lufa/LUFA-120730/LUFA/Drivers/USB/Core/AVR8/../AVR8/../AVR8/Endpoint_AVR8.h **** 				if (Number >= ENDPOINT_TOTAL_ENDPOINTS)
 208:../../protocol/lufa/LUFA-120730/LUFA/Drivers/USB/Core/AVR8/../AVR8/../AVR8/Endpoint_AVR8.h **** 				  return false;
 209:../../protocol/lufa/LUFA-120730/LUFA/Drivers/USB/Core/AVR8/../AVR8/../AVR8/Endpoint_AVR8.h **** 			
 210:../../protocol/lufa/LUFA-120730/LUFA/Drivers/USB/Core/AVR8/../AVR8/../AVR8/Endpoint_AVR8.h **** 				return Endpoint_ConfigureEndpoint_Prv(Number,
 211:../../protocol/lufa/LUFA-120730/LUFA/Drivers/USB/Core/AVR8/../AVR8/../AVR8/Endpoint_AVR8.h **** 				                                      ((Type << EPTYPE0) | ((Address & ENDPOINT_DIR_IN) ? (1 <<
 212:../../protocol/lufa/LUFA-120730/LUFA/Drivers/USB/Core/AVR8/../AVR8/../AVR8/Endpoint_AVR8.h **** 				                                      ((1 << ALLOC) | ((Banks > 1) ? (1 << EPBK0) : 0) | Endpoi
 213:../../protocol/lufa/LUFA-120730/LUFA/Drivers/USB/Core/AVR8/../AVR8/../AVR8/Endpoint_AVR8.h **** 			}
 214:../../protocol/lufa/LUFA-120730/LUFA/Drivers/USB/Core/AVR8/../AVR8/../AVR8/Endpoint_AVR8.h **** 
 215:../../protocol/lufa/LUFA-120730/LUFA/Drivers/USB/Core/AVR8/../AVR8/../AVR8/Endpoint_AVR8.h **** 			/** Indicates the number of bytes currently stored in the current endpoint's selected bank.
 216:../../protocol/lufa/LUFA-120730/LUFA/Drivers/USB/Core/AVR8/../AVR8/../AVR8/Endpoint_AVR8.h **** 			 *
 217:../../protocol/lufa/LUFA-120730/LUFA/Drivers/USB/Core/AVR8/../AVR8/../AVR8/Endpoint_AVR8.h **** 			 *  \ingroup Group_EndpointRW_AVR8
 218:../../protocol/lufa/LUFA-120730/LUFA/Drivers/USB/Core/AVR8/../AVR8/../AVR8/Endpoint_AVR8.h **** 			 *
 219:../../protocol/lufa/LUFA-120730/LUFA/Drivers/USB/Core/AVR8/../AVR8/../AVR8/Endpoint_AVR8.h **** 			 *  \return Total number of bytes in the currently selected Endpoint's FIFO buffer.
 220:../../protocol/lufa/LUFA-120730/LUFA/Drivers/USB/Core/AVR8/../AVR8/../AVR8/Endpoint_AVR8.h **** 			 */
 221:../../protocol/lufa/LUFA-120730/LUFA/Drivers/USB/Core/AVR8/../AVR8/../AVR8/Endpoint_AVR8.h **** 			static inline uint16_t Endpoint_BytesInEndpoint(void) ATTR_WARN_UNUSED_RESULT ATTR_ALWAYS_INLINE
 222:../../protocol/lufa/LUFA-120730/LUFA/Drivers/USB/Core/AVR8/../AVR8/../AVR8/Endpoint_AVR8.h **** 			static inline uint16_t Endpoint_BytesInEndpoint(void)
 223:../../protocol/lufa/LUFA-120730/LUFA/Drivers/USB/Core/AVR8/../AVR8/../AVR8/Endpoint_AVR8.h **** 			{
 224:../../protocol/lufa/LUFA-120730/LUFA/Drivers/USB/Core/AVR8/../AVR8/../AVR8/Endpoint_AVR8.h **** 				#if (defined(USB_SERIES_6_AVR) || defined(USB_SERIES_7_AVR)) && !defined(__AVR_ATmega32U6__)
 225:../../protocol/lufa/LUFA-120730/LUFA/Drivers/USB/Core/AVR8/../AVR8/../AVR8/Endpoint_AVR8.h **** 					return UEBCX;
 226:../../protocol/lufa/LUFA-120730/LUFA/Drivers/USB/Core/AVR8/../AVR8/../AVR8/Endpoint_AVR8.h **** 				#elif defined(USB_SERIES_4_AVR) || defined(__AVR_ATmega32U6__)
 227:../../protocol/lufa/LUFA-120730/LUFA/Drivers/USB/Core/AVR8/../AVR8/../AVR8/Endpoint_AVR8.h **** 					return (((uint16_t)UEBCHX << 8) | UEBCLX);
 228:../../protocol/lufa/LUFA-120730/LUFA/Drivers/USB/Core/AVR8/../AVR8/../AVR8/Endpoint_AVR8.h **** 				#elif defined(USB_SERIES_2_AVR)
 229:../../protocol/lufa/LUFA-120730/LUFA/Drivers/USB/Core/AVR8/../AVR8/../AVR8/Endpoint_AVR8.h **** 					return UEBCLX;
 230:../../protocol/lufa/LUFA-120730/LUFA/Drivers/USB/Core/AVR8/../AVR8/../AVR8/Endpoint_AVR8.h **** 				#endif
 231:../../protocol/lufa/LUFA-120730/LUFA/Drivers/USB/Core/AVR8/../AVR8/../AVR8/Endpoint_AVR8.h **** 			}
 232:../../protocol/lufa/LUFA-120730/LUFA/Drivers/USB/Core/AVR8/../AVR8/../AVR8/Endpoint_AVR8.h **** 
 233:../../protocol/lufa/LUFA-120730/LUFA/Drivers/USB/Core/AVR8/../AVR8/../AVR8/Endpoint_AVR8.h **** 			/** Determines the currently selected endpoint's direction.
 234:../../protocol/lufa/LUFA-120730/LUFA/Drivers/USB/Core/AVR8/../AVR8/../AVR8/Endpoint_AVR8.h **** 			 *
 235:../../protocol/lufa/LUFA-120730/LUFA/Drivers/USB/Core/AVR8/../AVR8/../AVR8/Endpoint_AVR8.h **** 			 *  \return The currently selected endpoint's direction, as a \c ENDPOINT_DIR_* mask.
 236:../../protocol/lufa/LUFA-120730/LUFA/Drivers/USB/Core/AVR8/../AVR8/../AVR8/Endpoint_AVR8.h **** 			 */
 237:../../protocol/lufa/LUFA-120730/LUFA/Drivers/USB/Core/AVR8/../AVR8/../AVR8/Endpoint_AVR8.h **** 			static inline uint8_t Endpoint_GetEndpointDirection(void) ATTR_WARN_UNUSED_RESULT ATTR_ALWAYS_IN
 238:../../protocol/lufa/LUFA-120730/LUFA/Drivers/USB/Core/AVR8/../AVR8/../AVR8/Endpoint_AVR8.h **** 			static inline uint8_t Endpoint_GetEndpointDirection(void)
 239:../../protocol/lufa/LUFA-120730/LUFA/Drivers/USB/Core/AVR8/../AVR8/../AVR8/Endpoint_AVR8.h **** 			{
 240:../../protocol/lufa/LUFA-120730/LUFA/Drivers/USB/Core/AVR8/../AVR8/../AVR8/Endpoint_AVR8.h **** 				return (UECFG0X & (1 << EPDIR)) ? ENDPOINT_DIR_IN : ENDPOINT_DIR_OUT;
 241:../../protocol/lufa/LUFA-120730/LUFA/Drivers/USB/Core/AVR8/../AVR8/../AVR8/Endpoint_AVR8.h **** 			}
 242:../../protocol/lufa/LUFA-120730/LUFA/Drivers/USB/Core/AVR8/../AVR8/../AVR8/Endpoint_AVR8.h **** 
 243:../../protocol/lufa/LUFA-120730/LUFA/Drivers/USB/Core/AVR8/../AVR8/../AVR8/Endpoint_AVR8.h **** 			/** Get the endpoint address of the currently selected endpoint. This is typically used to save
 244:../../protocol/lufa/LUFA-120730/LUFA/Drivers/USB/Core/AVR8/../AVR8/../AVR8/Endpoint_AVR8.h **** 			 *  the currently selected endpoint so that it can be restored after another endpoint has been
 245:../../protocol/lufa/LUFA-120730/LUFA/Drivers/USB/Core/AVR8/../AVR8/../AVR8/Endpoint_AVR8.h **** 			 *  manipulated.
 246:../../protocol/lufa/LUFA-120730/LUFA/Drivers/USB/Core/AVR8/../AVR8/../AVR8/Endpoint_AVR8.h **** 			 *
 247:../../protocol/lufa/LUFA-120730/LUFA/Drivers/USB/Core/AVR8/../AVR8/../AVR8/Endpoint_AVR8.h **** 			 *  \return Index of the currently selected endpoint.
 248:../../protocol/lufa/LUFA-120730/LUFA/Drivers/USB/Core/AVR8/../AVR8/../AVR8/Endpoint_AVR8.h **** 			 */
 249:../../protocol/lufa/LUFA-120730/LUFA/Drivers/USB/Core/AVR8/../AVR8/../AVR8/Endpoint_AVR8.h **** 			static inline uint8_t Endpoint_GetCurrentEndpoint(void) ATTR_WARN_UNUSED_RESULT ATTR_ALWAYS_INLI
 250:../../protocol/lufa/LUFA-120730/LUFA/Drivers/USB/Core/AVR8/../AVR8/../AVR8/Endpoint_AVR8.h **** 			static inline uint8_t Endpoint_GetCurrentEndpoint(void)
 251:../../protocol/lufa/LUFA-120730/LUFA/Drivers/USB/Core/AVR8/../AVR8/../AVR8/Endpoint_AVR8.h **** 			{
 252:../../protocol/lufa/LUFA-120730/LUFA/Drivers/USB/Core/AVR8/../AVR8/../AVR8/Endpoint_AVR8.h **** 				#if !defined(CONTROL_ONLY_DEVICE)
 253:../../protocol/lufa/LUFA-120730/LUFA/Drivers/USB/Core/AVR8/../AVR8/../AVR8/Endpoint_AVR8.h **** 					return ((UENUM & ENDPOINT_EPNUM_MASK) | Endpoint_GetEndpointDirection());
 254:../../protocol/lufa/LUFA-120730/LUFA/Drivers/USB/Core/AVR8/../AVR8/../AVR8/Endpoint_AVR8.h **** 				#else
 255:../../protocol/lufa/LUFA-120730/LUFA/Drivers/USB/Core/AVR8/../AVR8/../AVR8/Endpoint_AVR8.h **** 					return ENDPOINT_CONTROLEP;
 256:../../protocol/lufa/LUFA-120730/LUFA/Drivers/USB/Core/AVR8/../AVR8/../AVR8/Endpoint_AVR8.h **** 				#endif
 257:../../protocol/lufa/LUFA-120730/LUFA/Drivers/USB/Core/AVR8/../AVR8/../AVR8/Endpoint_AVR8.h **** 			}
 258:../../protocol/lufa/LUFA-120730/LUFA/Drivers/USB/Core/AVR8/../AVR8/../AVR8/Endpoint_AVR8.h **** 
 259:../../protocol/lufa/LUFA-120730/LUFA/Drivers/USB/Core/AVR8/../AVR8/../AVR8/Endpoint_AVR8.h **** 			/** Selects the given endpoint address.
 260:../../protocol/lufa/LUFA-120730/LUFA/Drivers/USB/Core/AVR8/../AVR8/../AVR8/Endpoint_AVR8.h **** 			 *
 261:../../protocol/lufa/LUFA-120730/LUFA/Drivers/USB/Core/AVR8/../AVR8/../AVR8/Endpoint_AVR8.h **** 			 *  Any endpoint operations which do not require the endpoint address to be indicated will opera
 262:../../protocol/lufa/LUFA-120730/LUFA/Drivers/USB/Core/AVR8/../AVR8/../AVR8/Endpoint_AVR8.h **** 			 *  the currently selected endpoint.
 263:../../protocol/lufa/LUFA-120730/LUFA/Drivers/USB/Core/AVR8/../AVR8/../AVR8/Endpoint_AVR8.h **** 			 *
 264:../../protocol/lufa/LUFA-120730/LUFA/Drivers/USB/Core/AVR8/../AVR8/../AVR8/Endpoint_AVR8.h **** 			 *  \param[in] Address Endpoint address to select.
 265:../../protocol/lufa/LUFA-120730/LUFA/Drivers/USB/Core/AVR8/../AVR8/../AVR8/Endpoint_AVR8.h **** 			 */
 266:../../protocol/lufa/LUFA-120730/LUFA/Drivers/USB/Core/AVR8/../AVR8/../AVR8/Endpoint_AVR8.h **** 			static inline void Endpoint_SelectEndpoint(const uint8_t Address) ATTR_ALWAYS_INLINE;
 267:../../protocol/lufa/LUFA-120730/LUFA/Drivers/USB/Core/AVR8/../AVR8/../AVR8/Endpoint_AVR8.h **** 			static inline void Endpoint_SelectEndpoint(const uint8_t Address)
 268:../../protocol/lufa/LUFA-120730/LUFA/Drivers/USB/Core/AVR8/../AVR8/../AVR8/Endpoint_AVR8.h **** 			{
 269:../../protocol/lufa/LUFA-120730/LUFA/Drivers/USB/Core/AVR8/../AVR8/../AVR8/Endpoint_AVR8.h **** 				#if !defined(CONTROL_ONLY_DEVICE)
 270:../../protocol/lufa/LUFA-120730/LUFA/Drivers/USB/Core/AVR8/../AVR8/../AVR8/Endpoint_AVR8.h **** 					UENUM = (Address & ENDPOINT_EPNUM_MASK);
 271:../../protocol/lufa/LUFA-120730/LUFA/Drivers/USB/Core/AVR8/../AVR8/../AVR8/Endpoint_AVR8.h **** 				#endif
 272:../../protocol/lufa/LUFA-120730/LUFA/Drivers/USB/Core/AVR8/../AVR8/../AVR8/Endpoint_AVR8.h **** 			}
 273:../../protocol/lufa/LUFA-120730/LUFA/Drivers/USB/Core/AVR8/../AVR8/../AVR8/Endpoint_AVR8.h **** 
 274:../../protocol/lufa/LUFA-120730/LUFA/Drivers/USB/Core/AVR8/../AVR8/../AVR8/Endpoint_AVR8.h **** 			/** Resets the endpoint bank FIFO. This clears all the endpoint banks and resets the USB control
 275:../../protocol/lufa/LUFA-120730/LUFA/Drivers/USB/Core/AVR8/../AVR8/../AVR8/Endpoint_AVR8.h **** 			 *  data In and Out pointers to the bank's contents.
 276:../../protocol/lufa/LUFA-120730/LUFA/Drivers/USB/Core/AVR8/../AVR8/../AVR8/Endpoint_AVR8.h **** 			 *
 277:../../protocol/lufa/LUFA-120730/LUFA/Drivers/USB/Core/AVR8/../AVR8/../AVR8/Endpoint_AVR8.h **** 			 *  \param[in] Address  Endpoint address whose FIFO buffers are to be reset.
 278:../../protocol/lufa/LUFA-120730/LUFA/Drivers/USB/Core/AVR8/../AVR8/../AVR8/Endpoint_AVR8.h **** 			 */
 279:../../protocol/lufa/LUFA-120730/LUFA/Drivers/USB/Core/AVR8/../AVR8/../AVR8/Endpoint_AVR8.h **** 			static inline void Endpoint_ResetEndpoint(const uint8_t Address) ATTR_ALWAYS_INLINE;
 280:../../protocol/lufa/LUFA-120730/LUFA/Drivers/USB/Core/AVR8/../AVR8/../AVR8/Endpoint_AVR8.h **** 			static inline void Endpoint_ResetEndpoint(const uint8_t Address)
 281:../../protocol/lufa/LUFA-120730/LUFA/Drivers/USB/Core/AVR8/../AVR8/../AVR8/Endpoint_AVR8.h **** 			{
 282:../../protocol/lufa/LUFA-120730/LUFA/Drivers/USB/Core/AVR8/../AVR8/../AVR8/Endpoint_AVR8.h **** 				UERST = (1 << (Address & ENDPOINT_EPNUM_MASK));
 283:../../protocol/lufa/LUFA-120730/LUFA/Drivers/USB/Core/AVR8/../AVR8/../AVR8/Endpoint_AVR8.h **** 				UERST = 0;
 284:../../protocol/lufa/LUFA-120730/LUFA/Drivers/USB/Core/AVR8/../AVR8/../AVR8/Endpoint_AVR8.h **** 			}
 285:../../protocol/lufa/LUFA-120730/LUFA/Drivers/USB/Core/AVR8/../AVR8/../AVR8/Endpoint_AVR8.h **** 
 286:../../protocol/lufa/LUFA-120730/LUFA/Drivers/USB/Core/AVR8/../AVR8/../AVR8/Endpoint_AVR8.h **** 			/** Enables the currently selected endpoint so that data can be sent and received through it to
 287:../../protocol/lufa/LUFA-120730/LUFA/Drivers/USB/Core/AVR8/../AVR8/../AVR8/Endpoint_AVR8.h **** 			 *  and from a host.
 288:../../protocol/lufa/LUFA-120730/LUFA/Drivers/USB/Core/AVR8/../AVR8/../AVR8/Endpoint_AVR8.h **** 			 *
 289:../../protocol/lufa/LUFA-120730/LUFA/Drivers/USB/Core/AVR8/../AVR8/../AVR8/Endpoint_AVR8.h **** 			 *  \note Endpoints must first be configured properly via \ref Endpoint_ConfigureEndpoint().
 290:../../protocol/lufa/LUFA-120730/LUFA/Drivers/USB/Core/AVR8/../AVR8/../AVR8/Endpoint_AVR8.h **** 			 */
 291:../../protocol/lufa/LUFA-120730/LUFA/Drivers/USB/Core/AVR8/../AVR8/../AVR8/Endpoint_AVR8.h **** 			static inline void Endpoint_EnableEndpoint(void) ATTR_ALWAYS_INLINE;
 292:../../protocol/lufa/LUFA-120730/LUFA/Drivers/USB/Core/AVR8/../AVR8/../AVR8/Endpoint_AVR8.h **** 			static inline void Endpoint_EnableEndpoint(void)
 293:../../protocol/lufa/LUFA-120730/LUFA/Drivers/USB/Core/AVR8/../AVR8/../AVR8/Endpoint_AVR8.h **** 			{
 294:../../protocol/lufa/LUFA-120730/LUFA/Drivers/USB/Core/AVR8/../AVR8/../AVR8/Endpoint_AVR8.h **** 				UECONX |= (1 << EPEN);
 295:../../protocol/lufa/LUFA-120730/LUFA/Drivers/USB/Core/AVR8/../AVR8/../AVR8/Endpoint_AVR8.h **** 			}
 296:../../protocol/lufa/LUFA-120730/LUFA/Drivers/USB/Core/AVR8/../AVR8/../AVR8/Endpoint_AVR8.h **** 
 297:../../protocol/lufa/LUFA-120730/LUFA/Drivers/USB/Core/AVR8/../AVR8/../AVR8/Endpoint_AVR8.h **** 			/** Disables the currently selected endpoint so that data cannot be sent and received through it
 298:../../protocol/lufa/LUFA-120730/LUFA/Drivers/USB/Core/AVR8/../AVR8/../AVR8/Endpoint_AVR8.h **** 			 *  to and from a host.
 299:../../protocol/lufa/LUFA-120730/LUFA/Drivers/USB/Core/AVR8/../AVR8/../AVR8/Endpoint_AVR8.h **** 			 */
 300:../../protocol/lufa/LUFA-120730/LUFA/Drivers/USB/Core/AVR8/../AVR8/../AVR8/Endpoint_AVR8.h **** 			static inline void Endpoint_DisableEndpoint(void) ATTR_ALWAYS_INLINE;
 301:../../protocol/lufa/LUFA-120730/LUFA/Drivers/USB/Core/AVR8/../AVR8/../AVR8/Endpoint_AVR8.h **** 			static inline void Endpoint_DisableEndpoint(void)
 302:../../protocol/lufa/LUFA-120730/LUFA/Drivers/USB/Core/AVR8/../AVR8/../AVR8/Endpoint_AVR8.h **** 			{
 303:../../protocol/lufa/LUFA-120730/LUFA/Drivers/USB/Core/AVR8/../AVR8/../AVR8/Endpoint_AVR8.h **** 				UECONX &= ~(1 << EPEN);
 304:../../protocol/lufa/LUFA-120730/LUFA/Drivers/USB/Core/AVR8/../AVR8/../AVR8/Endpoint_AVR8.h **** 			}
 305:../../protocol/lufa/LUFA-120730/LUFA/Drivers/USB/Core/AVR8/../AVR8/../AVR8/Endpoint_AVR8.h **** 
 306:../../protocol/lufa/LUFA-120730/LUFA/Drivers/USB/Core/AVR8/../AVR8/../AVR8/Endpoint_AVR8.h **** 			/** Determines if the currently selected endpoint is enabled, but not necessarily configured.
 307:../../protocol/lufa/LUFA-120730/LUFA/Drivers/USB/Core/AVR8/../AVR8/../AVR8/Endpoint_AVR8.h **** 			 *
 308:../../protocol/lufa/LUFA-120730/LUFA/Drivers/USB/Core/AVR8/../AVR8/../AVR8/Endpoint_AVR8.h **** 			 * \return Boolean \c true if the currently selected endpoint is enabled, \c false otherwise.
 309:../../protocol/lufa/LUFA-120730/LUFA/Drivers/USB/Core/AVR8/../AVR8/../AVR8/Endpoint_AVR8.h **** 			 */
 310:../../protocol/lufa/LUFA-120730/LUFA/Drivers/USB/Core/AVR8/../AVR8/../AVR8/Endpoint_AVR8.h **** 			static inline bool Endpoint_IsEnabled(void) ATTR_WARN_UNUSED_RESULT ATTR_ALWAYS_INLINE;
 311:../../protocol/lufa/LUFA-120730/LUFA/Drivers/USB/Core/AVR8/../AVR8/../AVR8/Endpoint_AVR8.h **** 			static inline bool Endpoint_IsEnabled(void)
 312:../../protocol/lufa/LUFA-120730/LUFA/Drivers/USB/Core/AVR8/../AVR8/../AVR8/Endpoint_AVR8.h **** 			{
 313:../../protocol/lufa/LUFA-120730/LUFA/Drivers/USB/Core/AVR8/../AVR8/../AVR8/Endpoint_AVR8.h **** 				return ((UECONX & (1 << EPEN)) ? true : false);
 314:../../protocol/lufa/LUFA-120730/LUFA/Drivers/USB/Core/AVR8/../AVR8/../AVR8/Endpoint_AVR8.h **** 			}
 315:../../protocol/lufa/LUFA-120730/LUFA/Drivers/USB/Core/AVR8/../AVR8/../AVR8/Endpoint_AVR8.h **** 
 316:../../protocol/lufa/LUFA-120730/LUFA/Drivers/USB/Core/AVR8/../AVR8/../AVR8/Endpoint_AVR8.h **** 			/** Retrieves the number of busy banks in the currently selected endpoint, which have been queue
 317:../../protocol/lufa/LUFA-120730/LUFA/Drivers/USB/Core/AVR8/../AVR8/../AVR8/Endpoint_AVR8.h **** 			 *  transmission via the \ref Endpoint_ClearIN() command, or are awaiting acknowledgement via th
 318:../../protocol/lufa/LUFA-120730/LUFA/Drivers/USB/Core/AVR8/../AVR8/../AVR8/Endpoint_AVR8.h **** 			 *  \ref Endpoint_ClearOUT() command.
 319:../../protocol/lufa/LUFA-120730/LUFA/Drivers/USB/Core/AVR8/../AVR8/../AVR8/Endpoint_AVR8.h **** 			 *
 320:../../protocol/lufa/LUFA-120730/LUFA/Drivers/USB/Core/AVR8/../AVR8/../AVR8/Endpoint_AVR8.h **** 			 *  \ingroup Group_EndpointPacketManagement_AVR8
 321:../../protocol/lufa/LUFA-120730/LUFA/Drivers/USB/Core/AVR8/../AVR8/../AVR8/Endpoint_AVR8.h **** 			 *
 322:../../protocol/lufa/LUFA-120730/LUFA/Drivers/USB/Core/AVR8/../AVR8/../AVR8/Endpoint_AVR8.h **** 			 *  \return Total number of busy banks in the selected endpoint.
 323:../../protocol/lufa/LUFA-120730/LUFA/Drivers/USB/Core/AVR8/../AVR8/../AVR8/Endpoint_AVR8.h **** 			 */
 324:../../protocol/lufa/LUFA-120730/LUFA/Drivers/USB/Core/AVR8/../AVR8/../AVR8/Endpoint_AVR8.h **** 			static inline uint8_t Endpoint_GetBusyBanks(void) ATTR_ALWAYS_INLINE ATTR_WARN_UNUSED_RESULT;
 325:../../protocol/lufa/LUFA-120730/LUFA/Drivers/USB/Core/AVR8/../AVR8/../AVR8/Endpoint_AVR8.h **** 			static inline uint8_t Endpoint_GetBusyBanks(void)
 326:../../protocol/lufa/LUFA-120730/LUFA/Drivers/USB/Core/AVR8/../AVR8/../AVR8/Endpoint_AVR8.h **** 			{
 327:../../protocol/lufa/LUFA-120730/LUFA/Drivers/USB/Core/AVR8/../AVR8/../AVR8/Endpoint_AVR8.h **** 				return (UESTA0X & (0x03 << NBUSYBK0));
 328:../../protocol/lufa/LUFA-120730/LUFA/Drivers/USB/Core/AVR8/../AVR8/../AVR8/Endpoint_AVR8.h **** 			}
 329:../../protocol/lufa/LUFA-120730/LUFA/Drivers/USB/Core/AVR8/../AVR8/../AVR8/Endpoint_AVR8.h **** 
 330:../../protocol/lufa/LUFA-120730/LUFA/Drivers/USB/Core/AVR8/../AVR8/../AVR8/Endpoint_AVR8.h **** 			/** Aborts all pending IN transactions on the currently selected endpoint, once the bank
 331:../../protocol/lufa/LUFA-120730/LUFA/Drivers/USB/Core/AVR8/../AVR8/../AVR8/Endpoint_AVR8.h **** 			 *  has been queued for transmission to the host via \ref Endpoint_ClearIN(). This function
 332:../../protocol/lufa/LUFA-120730/LUFA/Drivers/USB/Core/AVR8/../AVR8/../AVR8/Endpoint_AVR8.h **** 			 *  will terminate all queued transactions, resetting the endpoint banks ready for a new
 333:../../protocol/lufa/LUFA-120730/LUFA/Drivers/USB/Core/AVR8/../AVR8/../AVR8/Endpoint_AVR8.h **** 			 *  packet.
 334:../../protocol/lufa/LUFA-120730/LUFA/Drivers/USB/Core/AVR8/../AVR8/../AVR8/Endpoint_AVR8.h **** 			 *
 335:../../protocol/lufa/LUFA-120730/LUFA/Drivers/USB/Core/AVR8/../AVR8/../AVR8/Endpoint_AVR8.h **** 			 *  \ingroup Group_EndpointPacketManagement_AVR8
 336:../../protocol/lufa/LUFA-120730/LUFA/Drivers/USB/Core/AVR8/../AVR8/../AVR8/Endpoint_AVR8.h **** 			 */
 337:../../protocol/lufa/LUFA-120730/LUFA/Drivers/USB/Core/AVR8/../AVR8/../AVR8/Endpoint_AVR8.h **** 			static inline void Endpoint_AbortPendingIN(void)
 338:../../protocol/lufa/LUFA-120730/LUFA/Drivers/USB/Core/AVR8/../AVR8/../AVR8/Endpoint_AVR8.h **** 			{
 339:../../protocol/lufa/LUFA-120730/LUFA/Drivers/USB/Core/AVR8/../AVR8/../AVR8/Endpoint_AVR8.h **** 				while (Endpoint_GetBusyBanks() != 0)
 340:../../protocol/lufa/LUFA-120730/LUFA/Drivers/USB/Core/AVR8/../AVR8/../AVR8/Endpoint_AVR8.h **** 				{
 341:../../protocol/lufa/LUFA-120730/LUFA/Drivers/USB/Core/AVR8/../AVR8/../AVR8/Endpoint_AVR8.h **** 					UEINTX |= (1 << RXOUTI);
 342:../../protocol/lufa/LUFA-120730/LUFA/Drivers/USB/Core/AVR8/../AVR8/../AVR8/Endpoint_AVR8.h **** 					while (UEINTX & (1 << RXOUTI));
 343:../../protocol/lufa/LUFA-120730/LUFA/Drivers/USB/Core/AVR8/../AVR8/../AVR8/Endpoint_AVR8.h **** 				}
 344:../../protocol/lufa/LUFA-120730/LUFA/Drivers/USB/Core/AVR8/../AVR8/../AVR8/Endpoint_AVR8.h **** 			}
 345:../../protocol/lufa/LUFA-120730/LUFA/Drivers/USB/Core/AVR8/../AVR8/../AVR8/Endpoint_AVR8.h **** 
 346:../../protocol/lufa/LUFA-120730/LUFA/Drivers/USB/Core/AVR8/../AVR8/../AVR8/Endpoint_AVR8.h **** 			/** Determines if the currently selected endpoint may be read from (if data is waiting in the en
 347:../../protocol/lufa/LUFA-120730/LUFA/Drivers/USB/Core/AVR8/../AVR8/../AVR8/Endpoint_AVR8.h **** 			 *  bank and the endpoint is an OUT direction, or if the bank is not yet full if the endpoint is
 348:../../protocol/lufa/LUFA-120730/LUFA/Drivers/USB/Core/AVR8/../AVR8/../AVR8/Endpoint_AVR8.h **** 			 *  direction). This function will return false if an error has occurred in the endpoint, if the
 349:../../protocol/lufa/LUFA-120730/LUFA/Drivers/USB/Core/AVR8/../AVR8/../AVR8/Endpoint_AVR8.h **** 			 *  is an OUT direction and no packet (or an empty packet) has been received, or if the endpoint
 350:../../protocol/lufa/LUFA-120730/LUFA/Drivers/USB/Core/AVR8/../AVR8/../AVR8/Endpoint_AVR8.h **** 			 *  direction and the endpoint bank is full.
 351:../../protocol/lufa/LUFA-120730/LUFA/Drivers/USB/Core/AVR8/../AVR8/../AVR8/Endpoint_AVR8.h **** 			 *
 352:../../protocol/lufa/LUFA-120730/LUFA/Drivers/USB/Core/AVR8/../AVR8/../AVR8/Endpoint_AVR8.h **** 			 *  \ingroup Group_EndpointPacketManagement_AVR8
 353:../../protocol/lufa/LUFA-120730/LUFA/Drivers/USB/Core/AVR8/../AVR8/../AVR8/Endpoint_AVR8.h **** 			 *
 354:../../protocol/lufa/LUFA-120730/LUFA/Drivers/USB/Core/AVR8/../AVR8/../AVR8/Endpoint_AVR8.h **** 			 *  \return Boolean \c true if the currently selected endpoint may be read from or written to, d
 355:../../protocol/lufa/LUFA-120730/LUFA/Drivers/USB/Core/AVR8/../AVR8/../AVR8/Endpoint_AVR8.h **** 			 *          on its direction.
 356:../../protocol/lufa/LUFA-120730/LUFA/Drivers/USB/Core/AVR8/../AVR8/../AVR8/Endpoint_AVR8.h **** 			 */
 357:../../protocol/lufa/LUFA-120730/LUFA/Drivers/USB/Core/AVR8/../AVR8/../AVR8/Endpoint_AVR8.h **** 			static inline bool Endpoint_IsReadWriteAllowed(void) ATTR_WARN_UNUSED_RESULT ATTR_ALWAYS_INLINE;
 358:../../protocol/lufa/LUFA-120730/LUFA/Drivers/USB/Core/AVR8/../AVR8/../AVR8/Endpoint_AVR8.h **** 			static inline bool Endpoint_IsReadWriteAllowed(void)
 359:../../protocol/lufa/LUFA-120730/LUFA/Drivers/USB/Core/AVR8/../AVR8/../AVR8/Endpoint_AVR8.h **** 			{
 360:../../protocol/lufa/LUFA-120730/LUFA/Drivers/USB/Core/AVR8/../AVR8/../AVR8/Endpoint_AVR8.h **** 				return ((UEINTX & (1 << RWAL)) ? true : false);
  78               		.loc 2 360 0
  79 002e 8091 E800 		lds r24,232
  80               	.LBE257:
  81               	.LBE256:
  55:../../protocol/lufa/LUFA-120730/LUFA/Drivers/USB/Core/AVR8/EndpointStream_AVR8.c **** 	{
  56:../../protocol/lufa/LUFA-120730/LUFA/Drivers/USB/Core/AVR8/EndpointStream_AVR8.c **** 		if (!(Endpoint_IsReadWriteAllowed()))
  82               		.loc 1 56 0
  83 0032 85FD      		sbrc r24,5
  84 0034 00C0      		rjmp .L5
  85               	.LBB258:
  86               	.LBB259:
 361:../../protocol/lufa/LUFA-120730/LUFA/Drivers/USB/Core/AVR8/../AVR8/../AVR8/Endpoint_AVR8.h **** 			}
 362:../../protocol/lufa/LUFA-120730/LUFA/Drivers/USB/Core/AVR8/../AVR8/../AVR8/Endpoint_AVR8.h **** 
 363:../../protocol/lufa/LUFA-120730/LUFA/Drivers/USB/Core/AVR8/../AVR8/../AVR8/Endpoint_AVR8.h **** 			/** Determines if the currently selected endpoint is configured.
 364:../../protocol/lufa/LUFA-120730/LUFA/Drivers/USB/Core/AVR8/../AVR8/../AVR8/Endpoint_AVR8.h **** 			 *
 365:../../protocol/lufa/LUFA-120730/LUFA/Drivers/USB/Core/AVR8/../AVR8/../AVR8/Endpoint_AVR8.h **** 			 *  \return Boolean \c true if the currently selected endpoint has been configured, \c false oth
 366:../../protocol/lufa/LUFA-120730/LUFA/Drivers/USB/Core/AVR8/../AVR8/../AVR8/Endpoint_AVR8.h **** 			 */
 367:../../protocol/lufa/LUFA-120730/LUFA/Drivers/USB/Core/AVR8/../AVR8/../AVR8/Endpoint_AVR8.h **** 			static inline bool Endpoint_IsConfigured(void) ATTR_WARN_UNUSED_RESULT ATTR_ALWAYS_INLINE;
 368:../../protocol/lufa/LUFA-120730/LUFA/Drivers/USB/Core/AVR8/../AVR8/../AVR8/Endpoint_AVR8.h **** 			static inline bool Endpoint_IsConfigured(void)
 369:../../protocol/lufa/LUFA-120730/LUFA/Drivers/USB/Core/AVR8/../AVR8/../AVR8/Endpoint_AVR8.h **** 			{
 370:../../protocol/lufa/LUFA-120730/LUFA/Drivers/USB/Core/AVR8/../AVR8/../AVR8/Endpoint_AVR8.h **** 				return ((UESTA0X & (1 << CFGOK)) ? true : false);
 371:../../protocol/lufa/LUFA-120730/LUFA/Drivers/USB/Core/AVR8/../AVR8/../AVR8/Endpoint_AVR8.h **** 			}
 372:../../protocol/lufa/LUFA-120730/LUFA/Drivers/USB/Core/AVR8/../AVR8/../AVR8/Endpoint_AVR8.h **** 
 373:../../protocol/lufa/LUFA-120730/LUFA/Drivers/USB/Core/AVR8/../AVR8/../AVR8/Endpoint_AVR8.h **** 			/** Returns a mask indicating which INTERRUPT type endpoints have interrupted - i.e. their
 374:../../protocol/lufa/LUFA-120730/LUFA/Drivers/USB/Core/AVR8/../AVR8/../AVR8/Endpoint_AVR8.h **** 			 *  interrupt duration has elapsed. Which endpoints have interrupted can be determined by
 375:../../protocol/lufa/LUFA-120730/LUFA/Drivers/USB/Core/AVR8/../AVR8/../AVR8/Endpoint_AVR8.h **** 			 *  masking the return value against <tt>(1 << <i>{Endpoint Number}</i>)</tt>.
 376:../../protocol/lufa/LUFA-120730/LUFA/Drivers/USB/Core/AVR8/../AVR8/../AVR8/Endpoint_AVR8.h **** 			 *
 377:../../protocol/lufa/LUFA-120730/LUFA/Drivers/USB/Core/AVR8/../AVR8/../AVR8/Endpoint_AVR8.h **** 			 *  \return Mask whose bits indicate which endpoints have interrupted.
 378:../../protocol/lufa/LUFA-120730/LUFA/Drivers/USB/Core/AVR8/../AVR8/../AVR8/Endpoint_AVR8.h **** 			 */
 379:../../protocol/lufa/LUFA-120730/LUFA/Drivers/USB/Core/AVR8/../AVR8/../AVR8/Endpoint_AVR8.h **** 			static inline uint8_t Endpoint_GetEndpointInterrupts(void) ATTR_WARN_UNUSED_RESULT ATTR_ALWAYS_I
 380:../../protocol/lufa/LUFA-120730/LUFA/Drivers/USB/Core/AVR8/../AVR8/../AVR8/Endpoint_AVR8.h **** 			static inline uint8_t Endpoint_GetEndpointInterrupts(void)
 381:../../protocol/lufa/LUFA-120730/LUFA/Drivers/USB/Core/AVR8/../AVR8/../AVR8/Endpoint_AVR8.h **** 			{
 382:../../protocol/lufa/LUFA-120730/LUFA/Drivers/USB/Core/AVR8/../AVR8/../AVR8/Endpoint_AVR8.h **** 				return UEINT;
 383:../../protocol/lufa/LUFA-120730/LUFA/Drivers/USB/Core/AVR8/../AVR8/../AVR8/Endpoint_AVR8.h **** 			}
 384:../../protocol/lufa/LUFA-120730/LUFA/Drivers/USB/Core/AVR8/../AVR8/../AVR8/Endpoint_AVR8.h **** 
 385:../../protocol/lufa/LUFA-120730/LUFA/Drivers/USB/Core/AVR8/../AVR8/../AVR8/Endpoint_AVR8.h **** 			/** Determines if the specified endpoint number has interrupted (valid only for INTERRUPT type
 386:../../protocol/lufa/LUFA-120730/LUFA/Drivers/USB/Core/AVR8/../AVR8/../AVR8/Endpoint_AVR8.h **** 			 *  endpoints).
 387:../../protocol/lufa/LUFA-120730/LUFA/Drivers/USB/Core/AVR8/../AVR8/../AVR8/Endpoint_AVR8.h **** 			 *
 388:../../protocol/lufa/LUFA-120730/LUFA/Drivers/USB/Core/AVR8/../AVR8/../AVR8/Endpoint_AVR8.h **** 			 *  \param[in] Address  Address of the endpoint whose interrupt flag should be tested.
 389:../../protocol/lufa/LUFA-120730/LUFA/Drivers/USB/Core/AVR8/../AVR8/../AVR8/Endpoint_AVR8.h **** 			 *
 390:../../protocol/lufa/LUFA-120730/LUFA/Drivers/USB/Core/AVR8/../AVR8/../AVR8/Endpoint_AVR8.h **** 			 *  \return Boolean \c true if the specified endpoint has interrupted, \c false otherwise.
 391:../../protocol/lufa/LUFA-120730/LUFA/Drivers/USB/Core/AVR8/../AVR8/../AVR8/Endpoint_AVR8.h **** 			 */
 392:../../protocol/lufa/LUFA-120730/LUFA/Drivers/USB/Core/AVR8/../AVR8/../AVR8/Endpoint_AVR8.h **** 			static inline bool Endpoint_HasEndpointInterrupted(const uint8_t Address) ATTR_WARN_UNUSED_RESUL
 393:../../protocol/lufa/LUFA-120730/LUFA/Drivers/USB/Core/AVR8/../AVR8/../AVR8/Endpoint_AVR8.h **** 			static inline bool Endpoint_HasEndpointInterrupted(const uint8_t Address)
 394:../../protocol/lufa/LUFA-120730/LUFA/Drivers/USB/Core/AVR8/../AVR8/../AVR8/Endpoint_AVR8.h **** 			{
 395:../../protocol/lufa/LUFA-120730/LUFA/Drivers/USB/Core/AVR8/../AVR8/../AVR8/Endpoint_AVR8.h **** 				return ((Endpoint_GetEndpointInterrupts() & (1 << (Address & ENDPOINT_EPNUM_MASK))) ? true : fa
 396:../../protocol/lufa/LUFA-120730/LUFA/Drivers/USB/Core/AVR8/../AVR8/../AVR8/Endpoint_AVR8.h **** 			}
 397:../../protocol/lufa/LUFA-120730/LUFA/Drivers/USB/Core/AVR8/../AVR8/../AVR8/Endpoint_AVR8.h **** 
 398:../../protocol/lufa/LUFA-120730/LUFA/Drivers/USB/Core/AVR8/../AVR8/../AVR8/Endpoint_AVR8.h **** 			/** Determines if the selected IN endpoint is ready for a new packet to be sent to the host.
 399:../../protocol/lufa/LUFA-120730/LUFA/Drivers/USB/Core/AVR8/../AVR8/../AVR8/Endpoint_AVR8.h **** 			 *
 400:../../protocol/lufa/LUFA-120730/LUFA/Drivers/USB/Core/AVR8/../AVR8/../AVR8/Endpoint_AVR8.h **** 			 *  \ingroup Group_EndpointPacketManagement_AVR8
 401:../../protocol/lufa/LUFA-120730/LUFA/Drivers/USB/Core/AVR8/../AVR8/../AVR8/Endpoint_AVR8.h **** 			 *
 402:../../protocol/lufa/LUFA-120730/LUFA/Drivers/USB/Core/AVR8/../AVR8/../AVR8/Endpoint_AVR8.h **** 			 *  \return Boolean \c true if the current endpoint is ready for an IN packet, \c false otherwis
 403:../../protocol/lufa/LUFA-120730/LUFA/Drivers/USB/Core/AVR8/../AVR8/../AVR8/Endpoint_AVR8.h **** 			 */
 404:../../protocol/lufa/LUFA-120730/LUFA/Drivers/USB/Core/AVR8/../AVR8/../AVR8/Endpoint_AVR8.h **** 			static inline bool Endpoint_IsINReady(void) ATTR_WARN_UNUSED_RESULT ATTR_ALWAYS_INLINE;
 405:../../protocol/lufa/LUFA-120730/LUFA/Drivers/USB/Core/AVR8/../AVR8/../AVR8/Endpoint_AVR8.h **** 			static inline bool Endpoint_IsINReady(void)
 406:../../protocol/lufa/LUFA-120730/LUFA/Drivers/USB/Core/AVR8/../AVR8/../AVR8/Endpoint_AVR8.h **** 			{
 407:../../protocol/lufa/LUFA-120730/LUFA/Drivers/USB/Core/AVR8/../AVR8/../AVR8/Endpoint_AVR8.h **** 				return ((UEINTX & (1 << TXINI)) ? true : false);
 408:../../protocol/lufa/LUFA-120730/LUFA/Drivers/USB/Core/AVR8/../AVR8/../AVR8/Endpoint_AVR8.h **** 			}
 409:../../protocol/lufa/LUFA-120730/LUFA/Drivers/USB/Core/AVR8/../AVR8/../AVR8/Endpoint_AVR8.h **** 
 410:../../protocol/lufa/LUFA-120730/LUFA/Drivers/USB/Core/AVR8/../AVR8/../AVR8/Endpoint_AVR8.h **** 			/** Determines if the selected OUT endpoint has received new packet from the host.
 411:../../protocol/lufa/LUFA-120730/LUFA/Drivers/USB/Core/AVR8/../AVR8/../AVR8/Endpoint_AVR8.h **** 			 *
 412:../../protocol/lufa/LUFA-120730/LUFA/Drivers/USB/Core/AVR8/../AVR8/../AVR8/Endpoint_AVR8.h **** 			 *  \ingroup Group_EndpointPacketManagement_AVR8
 413:../../protocol/lufa/LUFA-120730/LUFA/Drivers/USB/Core/AVR8/../AVR8/../AVR8/Endpoint_AVR8.h **** 			 *
 414:../../protocol/lufa/LUFA-120730/LUFA/Drivers/USB/Core/AVR8/../AVR8/../AVR8/Endpoint_AVR8.h **** 			 *  \return Boolean \c true if current endpoint is has received an OUT packet, \c false otherwis
 415:../../protocol/lufa/LUFA-120730/LUFA/Drivers/USB/Core/AVR8/../AVR8/../AVR8/Endpoint_AVR8.h **** 			 */
 416:../../protocol/lufa/LUFA-120730/LUFA/Drivers/USB/Core/AVR8/../AVR8/../AVR8/Endpoint_AVR8.h **** 			static inline bool Endpoint_IsOUTReceived(void) ATTR_WARN_UNUSED_RESULT ATTR_ALWAYS_INLINE;
 417:../../protocol/lufa/LUFA-120730/LUFA/Drivers/USB/Core/AVR8/../AVR8/../AVR8/Endpoint_AVR8.h **** 			static inline bool Endpoint_IsOUTReceived(void)
 418:../../protocol/lufa/LUFA-120730/LUFA/Drivers/USB/Core/AVR8/../AVR8/../AVR8/Endpoint_AVR8.h **** 			{
 419:../../protocol/lufa/LUFA-120730/LUFA/Drivers/USB/Core/AVR8/../AVR8/../AVR8/Endpoint_AVR8.h **** 				return ((UEINTX & (1 << RXOUTI)) ? true : false);
 420:../../protocol/lufa/LUFA-120730/LUFA/Drivers/USB/Core/AVR8/../AVR8/../AVR8/Endpoint_AVR8.h **** 			}
 421:../../protocol/lufa/LUFA-120730/LUFA/Drivers/USB/Core/AVR8/../AVR8/../AVR8/Endpoint_AVR8.h **** 
 422:../../protocol/lufa/LUFA-120730/LUFA/Drivers/USB/Core/AVR8/../AVR8/../AVR8/Endpoint_AVR8.h **** 			/** Determines if the current CONTROL type endpoint has received a SETUP packet.
 423:../../protocol/lufa/LUFA-120730/LUFA/Drivers/USB/Core/AVR8/../AVR8/../AVR8/Endpoint_AVR8.h **** 			 *
 424:../../protocol/lufa/LUFA-120730/LUFA/Drivers/USB/Core/AVR8/../AVR8/../AVR8/Endpoint_AVR8.h **** 			 *  \ingroup Group_EndpointPacketManagement_AVR8
 425:../../protocol/lufa/LUFA-120730/LUFA/Drivers/USB/Core/AVR8/../AVR8/../AVR8/Endpoint_AVR8.h **** 			 *
 426:../../protocol/lufa/LUFA-120730/LUFA/Drivers/USB/Core/AVR8/../AVR8/../AVR8/Endpoint_AVR8.h **** 			 *  \return Boolean \c true if the selected endpoint has received a SETUP packet, \c false other
 427:../../protocol/lufa/LUFA-120730/LUFA/Drivers/USB/Core/AVR8/../AVR8/../AVR8/Endpoint_AVR8.h **** 			 */
 428:../../protocol/lufa/LUFA-120730/LUFA/Drivers/USB/Core/AVR8/../AVR8/../AVR8/Endpoint_AVR8.h **** 			static inline bool Endpoint_IsSETUPReceived(void) ATTR_WARN_UNUSED_RESULT ATTR_ALWAYS_INLINE;
 429:../../protocol/lufa/LUFA-120730/LUFA/Drivers/USB/Core/AVR8/../AVR8/../AVR8/Endpoint_AVR8.h **** 			static inline bool Endpoint_IsSETUPReceived(void)
 430:../../protocol/lufa/LUFA-120730/LUFA/Drivers/USB/Core/AVR8/../AVR8/../AVR8/Endpoint_AVR8.h **** 			{
 431:../../protocol/lufa/LUFA-120730/LUFA/Drivers/USB/Core/AVR8/../AVR8/../AVR8/Endpoint_AVR8.h **** 				return ((UEINTX & (1 << RXSTPI)) ? true : false);
 432:../../protocol/lufa/LUFA-120730/LUFA/Drivers/USB/Core/AVR8/../AVR8/../AVR8/Endpoint_AVR8.h **** 			}
 433:../../protocol/lufa/LUFA-120730/LUFA/Drivers/USB/Core/AVR8/../AVR8/../AVR8/Endpoint_AVR8.h **** 
 434:../../protocol/lufa/LUFA-120730/LUFA/Drivers/USB/Core/AVR8/../AVR8/../AVR8/Endpoint_AVR8.h **** 			/** Clears a received SETUP packet on the currently selected CONTROL type endpoint, freeing up t
 435:../../protocol/lufa/LUFA-120730/LUFA/Drivers/USB/Core/AVR8/../AVR8/../AVR8/Endpoint_AVR8.h **** 			 *  endpoint for the next packet.
 436:../../protocol/lufa/LUFA-120730/LUFA/Drivers/USB/Core/AVR8/../AVR8/../AVR8/Endpoint_AVR8.h **** 			 *
 437:../../protocol/lufa/LUFA-120730/LUFA/Drivers/USB/Core/AVR8/../AVR8/../AVR8/Endpoint_AVR8.h **** 			 *  \ingroup Group_EndpointPacketManagement_AVR8
 438:../../protocol/lufa/LUFA-120730/LUFA/Drivers/USB/Core/AVR8/../AVR8/../AVR8/Endpoint_AVR8.h **** 			 *
 439:../../protocol/lufa/LUFA-120730/LUFA/Drivers/USB/Core/AVR8/../AVR8/../AVR8/Endpoint_AVR8.h **** 			 *  \note This is not applicable for non CONTROL type endpoints.
 440:../../protocol/lufa/LUFA-120730/LUFA/Drivers/USB/Core/AVR8/../AVR8/../AVR8/Endpoint_AVR8.h **** 			 */
 441:../../protocol/lufa/LUFA-120730/LUFA/Drivers/USB/Core/AVR8/../AVR8/../AVR8/Endpoint_AVR8.h **** 			static inline void Endpoint_ClearSETUP(void) ATTR_ALWAYS_INLINE;
 442:../../protocol/lufa/LUFA-120730/LUFA/Drivers/USB/Core/AVR8/../AVR8/../AVR8/Endpoint_AVR8.h **** 			static inline void Endpoint_ClearSETUP(void)
 443:../../protocol/lufa/LUFA-120730/LUFA/Drivers/USB/Core/AVR8/../AVR8/../AVR8/Endpoint_AVR8.h **** 			{
 444:../../protocol/lufa/LUFA-120730/LUFA/Drivers/USB/Core/AVR8/../AVR8/../AVR8/Endpoint_AVR8.h **** 				UEINTX &= ~(1 << RXSTPI);
 445:../../protocol/lufa/LUFA-120730/LUFA/Drivers/USB/Core/AVR8/../AVR8/../AVR8/Endpoint_AVR8.h **** 			}
 446:../../protocol/lufa/LUFA-120730/LUFA/Drivers/USB/Core/AVR8/../AVR8/../AVR8/Endpoint_AVR8.h **** 
 447:../../protocol/lufa/LUFA-120730/LUFA/Drivers/USB/Core/AVR8/../AVR8/../AVR8/Endpoint_AVR8.h **** 			/** Sends an IN packet to the host on the currently selected endpoint, freeing up the endpoint f
 448:../../protocol/lufa/LUFA-120730/LUFA/Drivers/USB/Core/AVR8/../AVR8/../AVR8/Endpoint_AVR8.h **** 			 *  next packet and switching to the alternative endpoint bank if double banked.
 449:../../protocol/lufa/LUFA-120730/LUFA/Drivers/USB/Core/AVR8/../AVR8/../AVR8/Endpoint_AVR8.h **** 			 *
 450:../../protocol/lufa/LUFA-120730/LUFA/Drivers/USB/Core/AVR8/../AVR8/../AVR8/Endpoint_AVR8.h **** 			 *  \ingroup Group_EndpointPacketManagement_AVR8
 451:../../protocol/lufa/LUFA-120730/LUFA/Drivers/USB/Core/AVR8/../AVR8/../AVR8/Endpoint_AVR8.h **** 			 */
 452:../../protocol/lufa/LUFA-120730/LUFA/Drivers/USB/Core/AVR8/../AVR8/../AVR8/Endpoint_AVR8.h **** 			static inline void Endpoint_ClearIN(void) ATTR_ALWAYS_INLINE;
 453:../../protocol/lufa/LUFA-120730/LUFA/Drivers/USB/Core/AVR8/../AVR8/../AVR8/Endpoint_AVR8.h **** 			static inline void Endpoint_ClearIN(void)
 454:../../protocol/lufa/LUFA-120730/LUFA/Drivers/USB/Core/AVR8/../AVR8/../AVR8/Endpoint_AVR8.h **** 			{
 455:../../protocol/lufa/LUFA-120730/LUFA/Drivers/USB/Core/AVR8/../AVR8/../AVR8/Endpoint_AVR8.h **** 				#if !defined(CONTROL_ONLY_DEVICE)
 456:../../protocol/lufa/LUFA-120730/LUFA/Drivers/USB/Core/AVR8/../AVR8/../AVR8/Endpoint_AVR8.h **** 					UEINTX &= ~((1 << TXINI) | (1 << FIFOCON));
 457:../../protocol/lufa/LUFA-120730/LUFA/Drivers/USB/Core/AVR8/../AVR8/../AVR8/Endpoint_AVR8.h **** 				#else
 458:../../protocol/lufa/LUFA-120730/LUFA/Drivers/USB/Core/AVR8/../AVR8/../AVR8/Endpoint_AVR8.h **** 					UEINTX &= ~(1 << TXINI);
 459:../../protocol/lufa/LUFA-120730/LUFA/Drivers/USB/Core/AVR8/../AVR8/../AVR8/Endpoint_AVR8.h **** 				#endif
 460:../../protocol/lufa/LUFA-120730/LUFA/Drivers/USB/Core/AVR8/../AVR8/../AVR8/Endpoint_AVR8.h **** 			}
 461:../../protocol/lufa/LUFA-120730/LUFA/Drivers/USB/Core/AVR8/../AVR8/../AVR8/Endpoint_AVR8.h **** 
 462:../../protocol/lufa/LUFA-120730/LUFA/Drivers/USB/Core/AVR8/../AVR8/../AVR8/Endpoint_AVR8.h **** 			/** Acknowledges an OUT packet to the host on the currently selected endpoint, freeing up the en
 463:../../protocol/lufa/LUFA-120730/LUFA/Drivers/USB/Core/AVR8/../AVR8/../AVR8/Endpoint_AVR8.h **** 			 *  for the next packet and switching to the alternative endpoint bank if double banked.
 464:../../protocol/lufa/LUFA-120730/LUFA/Drivers/USB/Core/AVR8/../AVR8/../AVR8/Endpoint_AVR8.h **** 			 *
 465:../../protocol/lufa/LUFA-120730/LUFA/Drivers/USB/Core/AVR8/../AVR8/../AVR8/Endpoint_AVR8.h **** 			 *  \ingroup Group_EndpointPacketManagement_AVR8
 466:../../protocol/lufa/LUFA-120730/LUFA/Drivers/USB/Core/AVR8/../AVR8/../AVR8/Endpoint_AVR8.h **** 			 */
 467:../../protocol/lufa/LUFA-120730/LUFA/Drivers/USB/Core/AVR8/../AVR8/../AVR8/Endpoint_AVR8.h **** 			static inline void Endpoint_ClearOUT(void) ATTR_ALWAYS_INLINE;
 468:../../protocol/lufa/LUFA-120730/LUFA/Drivers/USB/Core/AVR8/../AVR8/../AVR8/Endpoint_AVR8.h **** 			static inline void Endpoint_ClearOUT(void)
 469:../../protocol/lufa/LUFA-120730/LUFA/Drivers/USB/Core/AVR8/../AVR8/../AVR8/Endpoint_AVR8.h **** 			{
 470:../../protocol/lufa/LUFA-120730/LUFA/Drivers/USB/Core/AVR8/../AVR8/../AVR8/Endpoint_AVR8.h **** 				#if !defined(CONTROL_ONLY_DEVICE)
 471:../../protocol/lufa/LUFA-120730/LUFA/Drivers/USB/Core/AVR8/../AVR8/../AVR8/Endpoint_AVR8.h **** 					UEINTX &= ~((1 << RXOUTI) | (1 << FIFOCON));
  87               		.loc 2 471 0
  88 0036 8091 E800 		lds r24,232
  89 003a 8B77      		andi r24,lo8(123)
  90 003c 8093 E800 		sts 232,r24
  91               	.LBE259:
  92               	.LBE258:
  57:../../protocol/lufa/LUFA-120730/LUFA/Drivers/USB/Core/AVR8/EndpointStream_AVR8.c **** 		{
  58:../../protocol/lufa/LUFA-120730/LUFA/Drivers/USB/Core/AVR8/EndpointStream_AVR8.c **** 			Endpoint_ClearOUT();
  59:../../protocol/lufa/LUFA-120730/LUFA/Drivers/USB/Core/AVR8/EndpointStream_AVR8.c **** 
  60:../../protocol/lufa/LUFA-120730/LUFA/Drivers/USB/Core/AVR8/EndpointStream_AVR8.c **** 			if (BytesProcessed != NULL)
  93               		.loc 1 60 0
  94 0040 2097      		sbiw r28,0
  95 0042 01F0      		breq .L6
  61:../../protocol/lufa/LUFA-120730/LUFA/Drivers/USB/Core/AVR8/EndpointStream_AVR8.c **** 			{
  62:../../protocol/lufa/LUFA-120730/LUFA/Drivers/USB/Core/AVR8/EndpointStream_AVR8.c **** 				*BytesProcessed += BytesInTransfer;
  96               		.loc 1 62 0
  97 0044 8881      		ld r24,Y
  98 0046 9981      		ldd r25,Y+1
  99 0048 8E0D      		add r24,r14
 100 004a 9F1D      		adc r25,r15
 101 004c 9983      		std Y+1,r25
 102 004e 8883      		st Y,r24
  63:../../protocol/lufa/LUFA-120730/LUFA/Drivers/USB/Core/AVR8/EndpointStream_AVR8.c **** 				return ENDPOINT_RWSTREAM_IncompleteTransfer;
 103               		.loc 1 63 0
 104 0050 85E0      		ldi r24,lo8(5)
 105 0052 00C0      		rjmp .L2
 106               	.L6:
  64:../../protocol/lufa/LUFA-120730/LUFA/Drivers/USB/Core/AVR8/EndpointStream_AVR8.c **** 			}
  65:../../protocol/lufa/LUFA-120730/LUFA/Drivers/USB/Core/AVR8/EndpointStream_AVR8.c **** 
  66:../../protocol/lufa/LUFA-120730/LUFA/Drivers/USB/Core/AVR8/EndpointStream_AVR8.c **** 			if ((ErrorCode = Endpoint_WaitUntilReady()))
 107               		.loc 1 66 0
 108 0054 0E94 0000 		call Endpoint_WaitUntilReady
 109               	.LVL6:
 110 0058 8823      		tst r24
 111 005a 01F0      		breq .L4
 112 005c 00C0      		rjmp .L2
 113               	.LVL7:
 114               	.L5:
 115               	.LBB260:
 116               	.LBB261:
 472:../../protocol/lufa/LUFA-120730/LUFA/Drivers/USB/Core/AVR8/../AVR8/../AVR8/Endpoint_AVR8.h **** 				#else
 473:../../protocol/lufa/LUFA-120730/LUFA/Drivers/USB/Core/AVR8/../AVR8/../AVR8/Endpoint_AVR8.h **** 					UEINTX &= ~(1 << RXOUTI);
 474:../../protocol/lufa/LUFA-120730/LUFA/Drivers/USB/Core/AVR8/../AVR8/../AVR8/Endpoint_AVR8.h **** 				#endif
 475:../../protocol/lufa/LUFA-120730/LUFA/Drivers/USB/Core/AVR8/../AVR8/../AVR8/Endpoint_AVR8.h **** 			}
 476:../../protocol/lufa/LUFA-120730/LUFA/Drivers/USB/Core/AVR8/../AVR8/../AVR8/Endpoint_AVR8.h **** 
 477:../../protocol/lufa/LUFA-120730/LUFA/Drivers/USB/Core/AVR8/../AVR8/../AVR8/Endpoint_AVR8.h **** 			/** Stalls the current endpoint, indicating to the host that a logical problem occurred with the
 478:../../protocol/lufa/LUFA-120730/LUFA/Drivers/USB/Core/AVR8/../AVR8/../AVR8/Endpoint_AVR8.h **** 			 *  indicated endpoint and that the current transfer sequence should be aborted. This provides a
 479:../../protocol/lufa/LUFA-120730/LUFA/Drivers/USB/Core/AVR8/../AVR8/../AVR8/Endpoint_AVR8.h **** 			 *  way for devices to indicate invalid commands to the host so that the current transfer can be
 480:../../protocol/lufa/LUFA-120730/LUFA/Drivers/USB/Core/AVR8/../AVR8/../AVR8/Endpoint_AVR8.h **** 			 *  aborted and the host can begin its own recovery sequence.
 481:../../protocol/lufa/LUFA-120730/LUFA/Drivers/USB/Core/AVR8/../AVR8/../AVR8/Endpoint_AVR8.h **** 			 *
 482:../../protocol/lufa/LUFA-120730/LUFA/Drivers/USB/Core/AVR8/../AVR8/../AVR8/Endpoint_AVR8.h **** 			 *  The currently selected endpoint remains stalled until either the \ref Endpoint_ClearStall() 
 483:../../protocol/lufa/LUFA-120730/LUFA/Drivers/USB/Core/AVR8/../AVR8/../AVR8/Endpoint_AVR8.h **** 			 *  is called, or the host issues a CLEAR FEATURE request to the device for the currently select
 484:../../protocol/lufa/LUFA-120730/LUFA/Drivers/USB/Core/AVR8/../AVR8/../AVR8/Endpoint_AVR8.h **** 			 *  endpoint.
 485:../../protocol/lufa/LUFA-120730/LUFA/Drivers/USB/Core/AVR8/../AVR8/../AVR8/Endpoint_AVR8.h **** 			 *
 486:../../protocol/lufa/LUFA-120730/LUFA/Drivers/USB/Core/AVR8/../AVR8/../AVR8/Endpoint_AVR8.h **** 			 *  \ingroup Group_EndpointPacketManagement_AVR8
 487:../../protocol/lufa/LUFA-120730/LUFA/Drivers/USB/Core/AVR8/../AVR8/../AVR8/Endpoint_AVR8.h **** 			 */
 488:../../protocol/lufa/LUFA-120730/LUFA/Drivers/USB/Core/AVR8/../AVR8/../AVR8/Endpoint_AVR8.h **** 			static inline void Endpoint_StallTransaction(void) ATTR_ALWAYS_INLINE;
 489:../../protocol/lufa/LUFA-120730/LUFA/Drivers/USB/Core/AVR8/../AVR8/../AVR8/Endpoint_AVR8.h **** 			static inline void Endpoint_StallTransaction(void)
 490:../../protocol/lufa/LUFA-120730/LUFA/Drivers/USB/Core/AVR8/../AVR8/../AVR8/Endpoint_AVR8.h **** 			{
 491:../../protocol/lufa/LUFA-120730/LUFA/Drivers/USB/Core/AVR8/../AVR8/../AVR8/Endpoint_AVR8.h **** 				UECONX |= (1 << STALLRQ);
 492:../../protocol/lufa/LUFA-120730/LUFA/Drivers/USB/Core/AVR8/../AVR8/../AVR8/Endpoint_AVR8.h **** 			}
 493:../../protocol/lufa/LUFA-120730/LUFA/Drivers/USB/Core/AVR8/../AVR8/../AVR8/Endpoint_AVR8.h **** 
 494:../../protocol/lufa/LUFA-120730/LUFA/Drivers/USB/Core/AVR8/../AVR8/../AVR8/Endpoint_AVR8.h **** 			/** Clears the STALL condition on the currently selected endpoint.
 495:../../protocol/lufa/LUFA-120730/LUFA/Drivers/USB/Core/AVR8/../AVR8/../AVR8/Endpoint_AVR8.h **** 			 *
 496:../../protocol/lufa/LUFA-120730/LUFA/Drivers/USB/Core/AVR8/../AVR8/../AVR8/Endpoint_AVR8.h **** 			 *  \ingroup Group_EndpointPacketManagement_AVR8
 497:../../protocol/lufa/LUFA-120730/LUFA/Drivers/USB/Core/AVR8/../AVR8/../AVR8/Endpoint_AVR8.h **** 			 */
 498:../../protocol/lufa/LUFA-120730/LUFA/Drivers/USB/Core/AVR8/../AVR8/../AVR8/Endpoint_AVR8.h **** 			static inline void Endpoint_ClearStall(void) ATTR_ALWAYS_INLINE;
 499:../../protocol/lufa/LUFA-120730/LUFA/Drivers/USB/Core/AVR8/../AVR8/../AVR8/Endpoint_AVR8.h **** 			static inline void Endpoint_ClearStall(void)
 500:../../protocol/lufa/LUFA-120730/LUFA/Drivers/USB/Core/AVR8/../AVR8/../AVR8/Endpoint_AVR8.h **** 			{
 501:../../protocol/lufa/LUFA-120730/LUFA/Drivers/USB/Core/AVR8/../AVR8/../AVR8/Endpoint_AVR8.h **** 				UECONX |= (1 << STALLRQC);
 502:../../protocol/lufa/LUFA-120730/LUFA/Drivers/USB/Core/AVR8/../AVR8/../AVR8/Endpoint_AVR8.h **** 			}
 503:../../protocol/lufa/LUFA-120730/LUFA/Drivers/USB/Core/AVR8/../AVR8/../AVR8/Endpoint_AVR8.h **** 
 504:../../protocol/lufa/LUFA-120730/LUFA/Drivers/USB/Core/AVR8/../AVR8/../AVR8/Endpoint_AVR8.h **** 			/** Determines if the currently selected endpoint is stalled, false otherwise.
 505:../../protocol/lufa/LUFA-120730/LUFA/Drivers/USB/Core/AVR8/../AVR8/../AVR8/Endpoint_AVR8.h **** 			 *
 506:../../protocol/lufa/LUFA-120730/LUFA/Drivers/USB/Core/AVR8/../AVR8/../AVR8/Endpoint_AVR8.h **** 			 *  \ingroup Group_EndpointPacketManagement_AVR8
 507:../../protocol/lufa/LUFA-120730/LUFA/Drivers/USB/Core/AVR8/../AVR8/../AVR8/Endpoint_AVR8.h **** 			 *
 508:../../protocol/lufa/LUFA-120730/LUFA/Drivers/USB/Core/AVR8/../AVR8/../AVR8/Endpoint_AVR8.h **** 			 *  \return Boolean \c true if the currently selected endpoint is stalled, \c false otherwise.
 509:../../protocol/lufa/LUFA-120730/LUFA/Drivers/USB/Core/AVR8/../AVR8/../AVR8/Endpoint_AVR8.h **** 			 */
 510:../../protocol/lufa/LUFA-120730/LUFA/Drivers/USB/Core/AVR8/../AVR8/../AVR8/Endpoint_AVR8.h **** 			static inline bool Endpoint_IsStalled(void) ATTR_WARN_UNUSED_RESULT ATTR_ALWAYS_INLINE;
 511:../../protocol/lufa/LUFA-120730/LUFA/Drivers/USB/Core/AVR8/../AVR8/../AVR8/Endpoint_AVR8.h **** 			static inline bool Endpoint_IsStalled(void)
 512:../../protocol/lufa/LUFA-120730/LUFA/Drivers/USB/Core/AVR8/../AVR8/../AVR8/Endpoint_AVR8.h **** 			{
 513:../../protocol/lufa/LUFA-120730/LUFA/Drivers/USB/Core/AVR8/../AVR8/../AVR8/Endpoint_AVR8.h **** 				return ((UECONX & (1 << STALLRQ)) ? true : false);
 514:../../protocol/lufa/LUFA-120730/LUFA/Drivers/USB/Core/AVR8/../AVR8/../AVR8/Endpoint_AVR8.h **** 			}
 515:../../protocol/lufa/LUFA-120730/LUFA/Drivers/USB/Core/AVR8/../AVR8/../AVR8/Endpoint_AVR8.h **** 
 516:../../protocol/lufa/LUFA-120730/LUFA/Drivers/USB/Core/AVR8/../AVR8/../AVR8/Endpoint_AVR8.h **** 			/** Resets the data toggle of the currently selected endpoint. */
 517:../../protocol/lufa/LUFA-120730/LUFA/Drivers/USB/Core/AVR8/../AVR8/../AVR8/Endpoint_AVR8.h **** 			static inline void Endpoint_ResetDataToggle(void) ATTR_ALWAYS_INLINE;
 518:../../protocol/lufa/LUFA-120730/LUFA/Drivers/USB/Core/AVR8/../AVR8/../AVR8/Endpoint_AVR8.h **** 			static inline void Endpoint_ResetDataToggle(void)
 519:../../protocol/lufa/LUFA-120730/LUFA/Drivers/USB/Core/AVR8/../AVR8/../AVR8/Endpoint_AVR8.h **** 			{
 520:../../protocol/lufa/LUFA-120730/LUFA/Drivers/USB/Core/AVR8/../AVR8/../AVR8/Endpoint_AVR8.h **** 				UECONX |= (1 << RSTDT);
 521:../../protocol/lufa/LUFA-120730/LUFA/Drivers/USB/Core/AVR8/../AVR8/../AVR8/Endpoint_AVR8.h **** 			}
 522:../../protocol/lufa/LUFA-120730/LUFA/Drivers/USB/Core/AVR8/../AVR8/../AVR8/Endpoint_AVR8.h **** 
 523:../../protocol/lufa/LUFA-120730/LUFA/Drivers/USB/Core/AVR8/../AVR8/../AVR8/Endpoint_AVR8.h **** 			/** Sets the direction of the currently selected endpoint.
 524:../../protocol/lufa/LUFA-120730/LUFA/Drivers/USB/Core/AVR8/../AVR8/../AVR8/Endpoint_AVR8.h **** 			 *
 525:../../protocol/lufa/LUFA-120730/LUFA/Drivers/USB/Core/AVR8/../AVR8/../AVR8/Endpoint_AVR8.h **** 			 *  \param[in] DirectionMask  New endpoint direction, as a \c ENDPOINT_DIR_* mask.
 526:../../protocol/lufa/LUFA-120730/LUFA/Drivers/USB/Core/AVR8/../AVR8/../AVR8/Endpoint_AVR8.h **** 			 */
 527:../../protocol/lufa/LUFA-120730/LUFA/Drivers/USB/Core/AVR8/../AVR8/../AVR8/Endpoint_AVR8.h **** 			static inline void Endpoint_SetEndpointDirection(const uint8_t DirectionMask) ATTR_ALWAYS_INLINE
 528:../../protocol/lufa/LUFA-120730/LUFA/Drivers/USB/Core/AVR8/../AVR8/../AVR8/Endpoint_AVR8.h **** 			static inline void Endpoint_SetEndpointDirection(const uint8_t DirectionMask)
 529:../../protocol/lufa/LUFA-120730/LUFA/Drivers/USB/Core/AVR8/../AVR8/../AVR8/Endpoint_AVR8.h **** 			{
 530:../../protocol/lufa/LUFA-120730/LUFA/Drivers/USB/Core/AVR8/../AVR8/../AVR8/Endpoint_AVR8.h **** 				UECFG0X = ((UECFG0X & ~(1 << EPDIR)) | (DirectionMask ? (1 << EPDIR) : 0));
 531:../../protocol/lufa/LUFA-120730/LUFA/Drivers/USB/Core/AVR8/../AVR8/../AVR8/Endpoint_AVR8.h **** 			}
 532:../../protocol/lufa/LUFA-120730/LUFA/Drivers/USB/Core/AVR8/../AVR8/../AVR8/Endpoint_AVR8.h **** 
 533:../../protocol/lufa/LUFA-120730/LUFA/Drivers/USB/Core/AVR8/../AVR8/../AVR8/Endpoint_AVR8.h **** 			/** Reads one byte from the currently selected endpoint's bank, for OUT direction endpoints.
 534:../../protocol/lufa/LUFA-120730/LUFA/Drivers/USB/Core/AVR8/../AVR8/../AVR8/Endpoint_AVR8.h **** 			 *
 535:../../protocol/lufa/LUFA-120730/LUFA/Drivers/USB/Core/AVR8/../AVR8/../AVR8/Endpoint_AVR8.h **** 			 *  \ingroup Group_EndpointPrimitiveRW_AVR8
 536:../../protocol/lufa/LUFA-120730/LUFA/Drivers/USB/Core/AVR8/../AVR8/../AVR8/Endpoint_AVR8.h **** 			 *
 537:../../protocol/lufa/LUFA-120730/LUFA/Drivers/USB/Core/AVR8/../AVR8/../AVR8/Endpoint_AVR8.h **** 			 *  \return Next byte in the currently selected endpoint's FIFO buffer.
 538:../../protocol/lufa/LUFA-120730/LUFA/Drivers/USB/Core/AVR8/../AVR8/../AVR8/Endpoint_AVR8.h **** 			 */
 539:../../protocol/lufa/LUFA-120730/LUFA/Drivers/USB/Core/AVR8/../AVR8/../AVR8/Endpoint_AVR8.h **** 			static inline uint8_t Endpoint_Read_8(void) ATTR_WARN_UNUSED_RESULT ATTR_ALWAYS_INLINE;
 540:../../protocol/lufa/LUFA-120730/LUFA/Drivers/USB/Core/AVR8/../AVR8/../AVR8/Endpoint_AVR8.h **** 			static inline uint8_t Endpoint_Read_8(void)
 541:../../protocol/lufa/LUFA-120730/LUFA/Drivers/USB/Core/AVR8/../AVR8/../AVR8/Endpoint_AVR8.h **** 			{
 542:../../protocol/lufa/LUFA-120730/LUFA/Drivers/USB/Core/AVR8/../AVR8/../AVR8/Endpoint_AVR8.h **** 				return UEDATX;
 543:../../protocol/lufa/LUFA-120730/LUFA/Drivers/USB/Core/AVR8/../AVR8/../AVR8/Endpoint_AVR8.h **** 			}
 544:../../protocol/lufa/LUFA-120730/LUFA/Drivers/USB/Core/AVR8/../AVR8/../AVR8/Endpoint_AVR8.h **** 
 545:../../protocol/lufa/LUFA-120730/LUFA/Drivers/USB/Core/AVR8/../AVR8/../AVR8/Endpoint_AVR8.h **** 			/** Writes one byte to the currently selected endpoint's bank, for IN direction endpoints.
 546:../../protocol/lufa/LUFA-120730/LUFA/Drivers/USB/Core/AVR8/../AVR8/../AVR8/Endpoint_AVR8.h **** 			 *
 547:../../protocol/lufa/LUFA-120730/LUFA/Drivers/USB/Core/AVR8/../AVR8/../AVR8/Endpoint_AVR8.h **** 			 *  \ingroup Group_EndpointPrimitiveRW_AVR8
 548:../../protocol/lufa/LUFA-120730/LUFA/Drivers/USB/Core/AVR8/../AVR8/../AVR8/Endpoint_AVR8.h **** 			 *
 549:../../protocol/lufa/LUFA-120730/LUFA/Drivers/USB/Core/AVR8/../AVR8/../AVR8/Endpoint_AVR8.h **** 			 *  \param[in] Data  Data to write into the the currently selected endpoint's FIFO buffer.
 550:../../protocol/lufa/LUFA-120730/LUFA/Drivers/USB/Core/AVR8/../AVR8/../AVR8/Endpoint_AVR8.h **** 			 */
 551:../../protocol/lufa/LUFA-120730/LUFA/Drivers/USB/Core/AVR8/../AVR8/../AVR8/Endpoint_AVR8.h **** 			static inline void Endpoint_Write_8(const uint8_t Data) ATTR_ALWAYS_INLINE;
 552:../../protocol/lufa/LUFA-120730/LUFA/Drivers/USB/Core/AVR8/../AVR8/../AVR8/Endpoint_AVR8.h **** 			static inline void Endpoint_Write_8(const uint8_t Data)
 553:../../protocol/lufa/LUFA-120730/LUFA/Drivers/USB/Core/AVR8/../AVR8/../AVR8/Endpoint_AVR8.h **** 			{
 554:../../protocol/lufa/LUFA-120730/LUFA/Drivers/USB/Core/AVR8/../AVR8/../AVR8/Endpoint_AVR8.h **** 				UEDATX = Data;
 555:../../protocol/lufa/LUFA-120730/LUFA/Drivers/USB/Core/AVR8/../AVR8/../AVR8/Endpoint_AVR8.h **** 			}
 556:../../protocol/lufa/LUFA-120730/LUFA/Drivers/USB/Core/AVR8/../AVR8/../AVR8/Endpoint_AVR8.h **** 
 557:../../protocol/lufa/LUFA-120730/LUFA/Drivers/USB/Core/AVR8/../AVR8/../AVR8/Endpoint_AVR8.h **** 			/** Discards one byte from the currently selected endpoint's bank, for OUT direction endpoints.
 558:../../protocol/lufa/LUFA-120730/LUFA/Drivers/USB/Core/AVR8/../AVR8/../AVR8/Endpoint_AVR8.h **** 			 *
 559:../../protocol/lufa/LUFA-120730/LUFA/Drivers/USB/Core/AVR8/../AVR8/../AVR8/Endpoint_AVR8.h **** 			 *  \ingroup Group_EndpointPrimitiveRW_AVR8
 560:../../protocol/lufa/LUFA-120730/LUFA/Drivers/USB/Core/AVR8/../AVR8/../AVR8/Endpoint_AVR8.h **** 			 */
 561:../../protocol/lufa/LUFA-120730/LUFA/Drivers/USB/Core/AVR8/../AVR8/../AVR8/Endpoint_AVR8.h **** 			static inline void Endpoint_Discard_8(void) ATTR_ALWAYS_INLINE;
 562:../../protocol/lufa/LUFA-120730/LUFA/Drivers/USB/Core/AVR8/../AVR8/../AVR8/Endpoint_AVR8.h **** 			static inline void Endpoint_Discard_8(void)
 563:../../protocol/lufa/LUFA-120730/LUFA/Drivers/USB/Core/AVR8/../AVR8/../AVR8/Endpoint_AVR8.h **** 			{
 564:../../protocol/lufa/LUFA-120730/LUFA/Drivers/USB/Core/AVR8/../AVR8/../AVR8/Endpoint_AVR8.h **** 				uint8_t Dummy;
 565:../../protocol/lufa/LUFA-120730/LUFA/Drivers/USB/Core/AVR8/../AVR8/../AVR8/Endpoint_AVR8.h **** 
 566:../../protocol/lufa/LUFA-120730/LUFA/Drivers/USB/Core/AVR8/../AVR8/../AVR8/Endpoint_AVR8.h **** 				Dummy = UEDATX;
 117               		.loc 2 566 0
 118 005e 8091 F100 		lds r24,241
 119               	.LBE261:
 120               	.LBE260:
  67:../../protocol/lufa/LUFA-120730/LUFA/Drivers/USB/Core/AVR8/EndpointStream_AVR8.c **** 			  return ErrorCode;
  68:../../protocol/lufa/LUFA-120730/LUFA/Drivers/USB/Core/AVR8/EndpointStream_AVR8.c **** 		}
  69:../../protocol/lufa/LUFA-120730/LUFA/Drivers/USB/Core/AVR8/EndpointStream_AVR8.c **** 		else
  70:../../protocol/lufa/LUFA-120730/LUFA/Drivers/USB/Core/AVR8/EndpointStream_AVR8.c **** 		{
  71:../../protocol/lufa/LUFA-120730/LUFA/Drivers/USB/Core/AVR8/EndpointStream_AVR8.c **** 			Endpoint_Discard_8();
  72:../../protocol/lufa/LUFA-120730/LUFA/Drivers/USB/Core/AVR8/EndpointStream_AVR8.c **** 
  73:../../protocol/lufa/LUFA-120730/LUFA/Drivers/USB/Core/AVR8/EndpointStream_AVR8.c **** 			Length--;
 121               		.loc 1 73 0
 122 0062 0150      		subi r16,1
 123 0064 1109      		sbc r17,__zero_reg__
 124               	.LVL8:
  74:../../protocol/lufa/LUFA-120730/LUFA/Drivers/USB/Core/AVR8/EndpointStream_AVR8.c **** 			BytesInTransfer++;
 125               		.loc 1 74 0
 126 0066 8FEF      		ldi r24,-1
 127 0068 E81A      		sub r14,r24
 128 006a F80A      		sbc r15,r24
 129               	.LVL9:
 130 006c 00C0      		rjmp .L4
 131               	.L15:
  75:../../protocol/lufa/LUFA-120730/LUFA/Drivers/USB/Core/AVR8/EndpointStream_AVR8.c **** 		}
  76:../../protocol/lufa/LUFA-120730/LUFA/Drivers/USB/Core/AVR8/EndpointStream_AVR8.c **** 	}
  77:../../protocol/lufa/LUFA-120730/LUFA/Drivers/USB/Core/AVR8/EndpointStream_AVR8.c **** 	
  78:../../protocol/lufa/LUFA-120730/LUFA/Drivers/USB/Core/AVR8/EndpointStream_AVR8.c **** 	return ENDPOINT_RWSTREAM_NoError;
 132               		.loc 1 78 0
 133 006e 80E0      		ldi r24,0
 134               	.LVL10:
 135               	.L2:
 136               	/* epilogue start */
  79:../../protocol/lufa/LUFA-120730/LUFA/Drivers/USB/Core/AVR8/EndpointStream_AVR8.c **** }
 137               		.loc 1 79 0
 138 0070 DF91      		pop r29
 139 0072 CF91      		pop r28
 140               	.LVL11:
 141 0074 1F91      		pop r17
 142 0076 0F91      		pop r16
 143               	.LVL12:
 144 0078 FF90      		pop r15
 145 007a EF90      		pop r14
 146 007c 0895      		ret
 147               		.cfi_endproc
 148               	.LFE84:
 150               		.section	.text.Endpoint_Null_Stream,"ax",@progbits
 151               	.global	Endpoint_Null_Stream
 153               	Endpoint_Null_Stream:
 154               	.LFB85:
  80:../../protocol/lufa/LUFA-120730/LUFA/Drivers/USB/Core/AVR8/EndpointStream_AVR8.c **** 
  81:../../protocol/lufa/LUFA-120730/LUFA/Drivers/USB/Core/AVR8/EndpointStream_AVR8.c **** uint8_t Endpoint_Null_Stream(uint16_t Length,
  82:../../protocol/lufa/LUFA-120730/LUFA/Drivers/USB/Core/AVR8/EndpointStream_AVR8.c ****                              uint16_t* const BytesProcessed)
  83:../../protocol/lufa/LUFA-120730/LUFA/Drivers/USB/Core/AVR8/EndpointStream_AVR8.c **** {
 155               		.loc 1 83 0
 156               		.cfi_startproc
 157               	.LVL13:
 158 0000 EF92      		push r14
 159               	.LCFI6:
 160               		.cfi_def_cfa_offset 3
 161               		.cfi_offset 14, -2
 162 0002 FF92      		push r15
 163               	.LCFI7:
 164               		.cfi_def_cfa_offset 4
 165               		.cfi_offset 15, -3
 166 0004 0F93      		push r16
 167               	.LCFI8:
 168               		.cfi_def_cfa_offset 5
 169               		.cfi_offset 16, -4
 170 0006 1F93      		push r17
 171               	.LCFI9:
 172               		.cfi_def_cfa_offset 6
 173               		.cfi_offset 17, -5
 174 0008 CF93      		push r28
 175               	.LCFI10:
 176               		.cfi_def_cfa_offset 7
 177               		.cfi_offset 28, -6
 178 000a DF93      		push r29
 179               	.LCFI11:
 180               		.cfi_def_cfa_offset 8
 181               		.cfi_offset 29, -7
 182               	/* prologue: function */
 183               	/* frame size = 0 */
 184               	/* stack size = 6 */
 185               	.L__stack_usage = 6
 186 000c 8C01      		movw r16,r24
 187 000e EB01      		movw r28,r22
 188               	.LVL14:
  84:../../protocol/lufa/LUFA-120730/LUFA/Drivers/USB/Core/AVR8/EndpointStream_AVR8.c **** 	uint8_t  ErrorCode;
  85:../../protocol/lufa/LUFA-120730/LUFA/Drivers/USB/Core/AVR8/EndpointStream_AVR8.c **** 	uint16_t BytesInTransfer = 0;
  86:../../protocol/lufa/LUFA-120730/LUFA/Drivers/USB/Core/AVR8/EndpointStream_AVR8.c **** 	
  87:../../protocol/lufa/LUFA-120730/LUFA/Drivers/USB/Core/AVR8/EndpointStream_AVR8.c **** 	if ((ErrorCode = Endpoint_WaitUntilReady()))
 189               		.loc 1 87 0
 190 0010 0E94 0000 		call Endpoint_WaitUntilReady
 191               	.LVL15:
 192 0014 8111      		cpse r24,__zero_reg__
 193 0016 00C0      		rjmp .L17
  88:../../protocol/lufa/LUFA-120730/LUFA/Drivers/USB/Core/AVR8/EndpointStream_AVR8.c **** 	  return ErrorCode;
  89:../../protocol/lufa/LUFA-120730/LUFA/Drivers/USB/Core/AVR8/EndpointStream_AVR8.c **** 	  
  90:../../protocol/lufa/LUFA-120730/LUFA/Drivers/USB/Core/AVR8/EndpointStream_AVR8.c **** 	if (BytesProcessed != NULL)
 194               		.loc 1 90 0
 195 0018 2097      		sbiw r28,0
 196 001a 01F0      		breq .L18
  91:../../protocol/lufa/LUFA-120730/LUFA/Drivers/USB/Core/AVR8/EndpointStream_AVR8.c **** 	  Length -= *BytesProcessed;
 197               		.loc 1 91 0
 198 001c 8881      		ld r24,Y
 199 001e 9981      		ldd r25,Y+1
 200               	.LVL16:
 201 0020 081B      		sub r16,r24
 202 0022 190B      		sbc r17,r25
 203               	.LVL17:
 204               	.L18:
  83:../../protocol/lufa/LUFA-120730/LUFA/Drivers/USB/Core/AVR8/EndpointStream_AVR8.c **** {
 205               		.loc 1 83 0 discriminator 1
 206 0024 E12C      		mov r14,__zero_reg__
 207 0026 F12C      		mov r15,__zero_reg__
 208               	.LVL18:
 209               	.L19:
  92:../../protocol/lufa/LUFA-120730/LUFA/Drivers/USB/Core/AVR8/EndpointStream_AVR8.c **** 
  93:../../protocol/lufa/LUFA-120730/LUFA/Drivers/USB/Core/AVR8/EndpointStream_AVR8.c **** 	while (Length)
 210               		.loc 1 93 0 discriminator 1
 211 0028 0115      		cp r16,__zero_reg__
 212 002a 1105      		cpc r17,__zero_reg__
 213 002c 01F0      		breq .L29
 214               	.LBB262:
 215               	.LBB263:
 360:../../protocol/lufa/LUFA-120730/LUFA/Drivers/USB/Core/AVR8/../AVR8/../AVR8/Endpoint_AVR8.h **** 				return ((UEINTX & (1 << RWAL)) ? true : false);
 216               		.loc 2 360 0
 217 002e 8091 E800 		lds r24,232
 218               	.LBE263:
 219               	.LBE262:
  94:../../protocol/lufa/LUFA-120730/LUFA/Drivers/USB/Core/AVR8/EndpointStream_AVR8.c **** 	{
  95:../../protocol/lufa/LUFA-120730/LUFA/Drivers/USB/Core/AVR8/EndpointStream_AVR8.c **** 		if (!(Endpoint_IsReadWriteAllowed()))
 220               		.loc 1 95 0
 221 0032 85FD      		sbrc r24,5
 222 0034 00C0      		rjmp .L20
 223               	.LBB264:
 224               	.LBB265:
 456:../../protocol/lufa/LUFA-120730/LUFA/Drivers/USB/Core/AVR8/../AVR8/../AVR8/Endpoint_AVR8.h **** 					UEINTX &= ~((1 << TXINI) | (1 << FIFOCON));
 225               		.loc 2 456 0
 226 0036 8091 E800 		lds r24,232
 227 003a 8E77      		andi r24,lo8(126)
 228 003c 8093 E800 		sts 232,r24
 229               	.LBE265:
 230               	.LBE264:
  96:../../protocol/lufa/LUFA-120730/LUFA/Drivers/USB/Core/AVR8/EndpointStream_AVR8.c **** 		{
  97:../../protocol/lufa/LUFA-120730/LUFA/Drivers/USB/Core/AVR8/EndpointStream_AVR8.c **** 			Endpoint_ClearIN();
  98:../../protocol/lufa/LUFA-120730/LUFA/Drivers/USB/Core/AVR8/EndpointStream_AVR8.c **** 
  99:../../protocol/lufa/LUFA-120730/LUFA/Drivers/USB/Core/AVR8/EndpointStream_AVR8.c **** 			if (BytesProcessed != NULL)
 231               		.loc 1 99 0
 232 0040 2097      		sbiw r28,0
 233 0042 01F0      		breq .L21
 100:../../protocol/lufa/LUFA-120730/LUFA/Drivers/USB/Core/AVR8/EndpointStream_AVR8.c **** 			{
 101:../../protocol/lufa/LUFA-120730/LUFA/Drivers/USB/Core/AVR8/EndpointStream_AVR8.c **** 				*BytesProcessed += BytesInTransfer;
 234               		.loc 1 101 0
 235 0044 8881      		ld r24,Y
 236 0046 9981      		ldd r25,Y+1
 237 0048 8E0D      		add r24,r14
 238 004a 9F1D      		adc r25,r15
 239 004c 9983      		std Y+1,r25
 240 004e 8883      		st Y,r24
 102:../../protocol/lufa/LUFA-120730/LUFA/Drivers/USB/Core/AVR8/EndpointStream_AVR8.c **** 				return ENDPOINT_RWSTREAM_IncompleteTransfer;
 241               		.loc 1 102 0
 242 0050 85E0      		ldi r24,lo8(5)
 243 0052 00C0      		rjmp .L17
 244               	.L21:
 103:../../protocol/lufa/LUFA-120730/LUFA/Drivers/USB/Core/AVR8/EndpointStream_AVR8.c **** 			}
 104:../../protocol/lufa/LUFA-120730/LUFA/Drivers/USB/Core/AVR8/EndpointStream_AVR8.c **** 
 105:../../protocol/lufa/LUFA-120730/LUFA/Drivers/USB/Core/AVR8/EndpointStream_AVR8.c **** 			if ((ErrorCode = Endpoint_WaitUntilReady()))
 245               		.loc 1 105 0
 246 0054 0E94 0000 		call Endpoint_WaitUntilReady
 247               	.LVL19:
 248 0058 8823      		tst r24
 249 005a 01F0      		breq .L19
 250 005c 00C0      		rjmp .L17
 251               	.LVL20:
 252               	.L20:
 253               	.LBB266:
 254               	.LBB267:
 554:../../protocol/lufa/LUFA-120730/LUFA/Drivers/USB/Core/AVR8/../AVR8/../AVR8/Endpoint_AVR8.h **** 				UEDATX = Data;
 255               		.loc 2 554 0
 256 005e 1092 F100 		sts 241,__zero_reg__
 257               	.LBE267:
 258               	.LBE266:
 106:../../protocol/lufa/LUFA-120730/LUFA/Drivers/USB/Core/AVR8/EndpointStream_AVR8.c **** 			  return ErrorCode;
 107:../../protocol/lufa/LUFA-120730/LUFA/Drivers/USB/Core/AVR8/EndpointStream_AVR8.c **** 		}
 108:../../protocol/lufa/LUFA-120730/LUFA/Drivers/USB/Core/AVR8/EndpointStream_AVR8.c **** 		else
 109:../../protocol/lufa/LUFA-120730/LUFA/Drivers/USB/Core/AVR8/EndpointStream_AVR8.c **** 		{
 110:../../protocol/lufa/LUFA-120730/LUFA/Drivers/USB/Core/AVR8/EndpointStream_AVR8.c **** 			Endpoint_Write_8(0);
 111:../../protocol/lufa/LUFA-120730/LUFA/Drivers/USB/Core/AVR8/EndpointStream_AVR8.c **** 
 112:../../protocol/lufa/LUFA-120730/LUFA/Drivers/USB/Core/AVR8/EndpointStream_AVR8.c **** 			Length--;
 259               		.loc 1 112 0
 260 0062 0150      		subi r16,1
 261 0064 1109      		sbc r17,__zero_reg__
 262               	.LVL21:
 113:../../protocol/lufa/LUFA-120730/LUFA/Drivers/USB/Core/AVR8/EndpointStream_AVR8.c **** 			BytesInTransfer++;
 263               		.loc 1 113 0
 264 0066 8FEF      		ldi r24,-1
 265 0068 E81A      		sub r14,r24
 266 006a F80A      		sbc r15,r24
 267               	.LVL22:
 268 006c 00C0      		rjmp .L19
 269               	.LVL23:
 270               	.L29:
 114:../../protocol/lufa/LUFA-120730/LUFA/Drivers/USB/Core/AVR8/EndpointStream_AVR8.c **** 		}
 115:../../protocol/lufa/LUFA-120730/LUFA/Drivers/USB/Core/AVR8/EndpointStream_AVR8.c **** 	}
 116:../../protocol/lufa/LUFA-120730/LUFA/Drivers/USB/Core/AVR8/EndpointStream_AVR8.c **** 	
 117:../../protocol/lufa/LUFA-120730/LUFA/Drivers/USB/Core/AVR8/EndpointStream_AVR8.c **** 	return ENDPOINT_RWSTREAM_NoError;
 271               		.loc 1 117 0
 272 006e 80E0      		ldi r24,0
 273               	.LVL24:
 274               	.L17:
 275               	/* epilogue start */
 118:../../protocol/lufa/LUFA-120730/LUFA/Drivers/USB/Core/AVR8/EndpointStream_AVR8.c **** }
 276               		.loc 1 118 0
 277 0070 DF91      		pop r29
 278 0072 CF91      		pop r28
 279               	.LVL25:
 280 0074 1F91      		pop r17
 281 0076 0F91      		pop r16
 282               	.LVL26:
 283 0078 FF90      		pop r15
 284 007a EF90      		pop r14
 285 007c 0895      		ret
 286               		.cfi_endproc
 287               	.LFE85:
 289               		.section	.text.Endpoint_Write_Stream_LE,"ax",@progbits
 290               	.global	Endpoint_Write_Stream_LE
 292               	Endpoint_Write_Stream_LE:
 293               	.LFB86:
 294               		.file 3 "../../protocol/lufa/LUFA-120730/LUFA/Drivers/USB/Core/AVR8/Template/Template_Endpoint_RW.
   1:../../protocol/lufa/LUFA-120730/LUFA/Drivers/USB/Core/AVR8/Template/Template_Endpoint_RW.c **** /*
   2:../../protocol/lufa/LUFA-120730/LUFA/Drivers/USB/Core/AVR8/Template/Template_Endpoint_RW.c ****              LUFA Library
   3:../../protocol/lufa/LUFA-120730/LUFA/Drivers/USB/Core/AVR8/Template/Template_Endpoint_RW.c ****      Copyright (C) Dean Camera, 2012.
   4:../../protocol/lufa/LUFA-120730/LUFA/Drivers/USB/Core/AVR8/Template/Template_Endpoint_RW.c **** 
   5:../../protocol/lufa/LUFA-120730/LUFA/Drivers/USB/Core/AVR8/Template/Template_Endpoint_RW.c ****   dean [at] fourwalledcubicle [dot] com
   6:../../protocol/lufa/LUFA-120730/LUFA/Drivers/USB/Core/AVR8/Template/Template_Endpoint_RW.c ****            www.lufa-lib.org
   7:../../protocol/lufa/LUFA-120730/LUFA/Drivers/USB/Core/AVR8/Template/Template_Endpoint_RW.c **** */
   8:../../protocol/lufa/LUFA-120730/LUFA/Drivers/USB/Core/AVR8/Template/Template_Endpoint_RW.c **** 
   9:../../protocol/lufa/LUFA-120730/LUFA/Drivers/USB/Core/AVR8/Template/Template_Endpoint_RW.c **** /*
  10:../../protocol/lufa/LUFA-120730/LUFA/Drivers/USB/Core/AVR8/Template/Template_Endpoint_RW.c ****   Copyright 2012  Dean Camera (dean [at] fourwalledcubicle [dot] com)
  11:../../protocol/lufa/LUFA-120730/LUFA/Drivers/USB/Core/AVR8/Template/Template_Endpoint_RW.c **** 
  12:../../protocol/lufa/LUFA-120730/LUFA/Drivers/USB/Core/AVR8/Template/Template_Endpoint_RW.c ****   Permission to use, copy, modify, distribute, and sell this
  13:../../protocol/lufa/LUFA-120730/LUFA/Drivers/USB/Core/AVR8/Template/Template_Endpoint_RW.c ****   software and its documentation for any purpose is hereby granted
  14:../../protocol/lufa/LUFA-120730/LUFA/Drivers/USB/Core/AVR8/Template/Template_Endpoint_RW.c ****   without fee, provided that the above copyright notice appear in
  15:../../protocol/lufa/LUFA-120730/LUFA/Drivers/USB/Core/AVR8/Template/Template_Endpoint_RW.c ****   all copies and that both that the copyright notice and this
  16:../../protocol/lufa/LUFA-120730/LUFA/Drivers/USB/Core/AVR8/Template/Template_Endpoint_RW.c ****   permission notice and warranty disclaimer appear in supporting
  17:../../protocol/lufa/LUFA-120730/LUFA/Drivers/USB/Core/AVR8/Template/Template_Endpoint_RW.c ****   documentation, and that the name of the author not be used in
  18:../../protocol/lufa/LUFA-120730/LUFA/Drivers/USB/Core/AVR8/Template/Template_Endpoint_RW.c ****   advertising or publicity pertaining to distribution of the
  19:../../protocol/lufa/LUFA-120730/LUFA/Drivers/USB/Core/AVR8/Template/Template_Endpoint_RW.c ****   software without specific, written prior permission.
  20:../../protocol/lufa/LUFA-120730/LUFA/Drivers/USB/Core/AVR8/Template/Template_Endpoint_RW.c **** 
  21:../../protocol/lufa/LUFA-120730/LUFA/Drivers/USB/Core/AVR8/Template/Template_Endpoint_RW.c ****   The author disclaim all warranties with regard to this
  22:../../protocol/lufa/LUFA-120730/LUFA/Drivers/USB/Core/AVR8/Template/Template_Endpoint_RW.c ****   software, including all implied warranties of merchantability
  23:../../protocol/lufa/LUFA-120730/LUFA/Drivers/USB/Core/AVR8/Template/Template_Endpoint_RW.c ****   and fitness.  In no event shall the author be liable for any
  24:../../protocol/lufa/LUFA-120730/LUFA/Drivers/USB/Core/AVR8/Template/Template_Endpoint_RW.c ****   special, indirect or consequential damages or any damages
  25:../../protocol/lufa/LUFA-120730/LUFA/Drivers/USB/Core/AVR8/Template/Template_Endpoint_RW.c ****   whatsoever resulting from loss of use, data or profits, whether
  26:../../protocol/lufa/LUFA-120730/LUFA/Drivers/USB/Core/AVR8/Template/Template_Endpoint_RW.c ****   in an action of contract, negligence or other tortious action,
  27:../../protocol/lufa/LUFA-120730/LUFA/Drivers/USB/Core/AVR8/Template/Template_Endpoint_RW.c ****   arising out of or in connection with the use or performance of
  28:../../protocol/lufa/LUFA-120730/LUFA/Drivers/USB/Core/AVR8/Template/Template_Endpoint_RW.c ****   this software.
  29:../../protocol/lufa/LUFA-120730/LUFA/Drivers/USB/Core/AVR8/Template/Template_Endpoint_RW.c **** */
  30:../../protocol/lufa/LUFA-120730/LUFA/Drivers/USB/Core/AVR8/Template/Template_Endpoint_RW.c **** 
  31:../../protocol/lufa/LUFA-120730/LUFA/Drivers/USB/Core/AVR8/Template/Template_Endpoint_RW.c **** #if defined(TEMPLATE_FUNC_NAME)
  32:../../protocol/lufa/LUFA-120730/LUFA/Drivers/USB/Core/AVR8/Template/Template_Endpoint_RW.c **** 
  33:../../protocol/lufa/LUFA-120730/LUFA/Drivers/USB/Core/AVR8/Template/Template_Endpoint_RW.c **** // cppcheck-suppress unusedFunction
  34:../../protocol/lufa/LUFA-120730/LUFA/Drivers/USB/Core/AVR8/Template/Template_Endpoint_RW.c **** uint8_t TEMPLATE_FUNC_NAME (TEMPLATE_BUFFER_TYPE const Buffer,
  35:../../protocol/lufa/LUFA-120730/LUFA/Drivers/USB/Core/AVR8/Template/Template_Endpoint_RW.c ****                             uint16_t Length,
  36:../../protocol/lufa/LUFA-120730/LUFA/Drivers/USB/Core/AVR8/Template/Template_Endpoint_RW.c ****                             uint16_t* const BytesProcessed)
  37:../../protocol/lufa/LUFA-120730/LUFA/Drivers/USB/Core/AVR8/Template/Template_Endpoint_RW.c **** {
 295               		.loc 3 37 0
 296               		.cfi_startproc
 297               	.LVL27:
 298 0000 CF92      		push r12
 299               	.LCFI12:
 300               		.cfi_def_cfa_offset 3
 301               		.cfi_offset 12, -2
 302 0002 DF92      		push r13
 303               	.LCFI13:
 304               		.cfi_def_cfa_offset 4
 305               		.cfi_offset 13, -3
 306 0004 EF92      		push r14
 307               	.LCFI14:
 308               		.cfi_def_cfa_offset 5
 309               		.cfi_offset 14, -4
 310 0006 FF92      		push r15
 311               	.LCFI15:
 312               		.cfi_def_cfa_offset 6
 313               		.cfi_offset 15, -5
 314 0008 0F93      		push r16
 315               	.LCFI16:
 316               		.cfi_def_cfa_offset 7
 317               		.cfi_offset 16, -6
 318 000a 1F93      		push r17
 319               	.LCFI17:
 320               		.cfi_def_cfa_offset 8
 321               		.cfi_offset 17, -7
 322 000c CF93      		push r28
 323               	.LCFI18:
 324               		.cfi_def_cfa_offset 9
 325               		.cfi_offset 28, -8
 326 000e DF93      		push r29
 327               	.LCFI19:
 328               		.cfi_def_cfa_offset 10
 329               		.cfi_offset 29, -9
 330               	/* prologue: function */
 331               	/* frame size = 0 */
 332               	/* stack size = 8 */
 333               	.L__stack_usage = 8
 334 0010 7C01      		movw r14,r24
 335 0012 8B01      		movw r16,r22
 336 0014 EA01      		movw r28,r20
 337               	.LVL28:
  38:../../protocol/lufa/LUFA-120730/LUFA/Drivers/USB/Core/AVR8/Template/Template_Endpoint_RW.c **** 	uint8_t* DataStream      = ((uint8_t*)Buffer + TEMPLATE_BUFFER_OFFSET(Length));
  39:../../protocol/lufa/LUFA-120730/LUFA/Drivers/USB/Core/AVR8/Template/Template_Endpoint_RW.c **** 	uint16_t BytesInTransfer = 0;
  40:../../protocol/lufa/LUFA-120730/LUFA/Drivers/USB/Core/AVR8/Template/Template_Endpoint_RW.c **** 	uint8_t  ErrorCode;
  41:../../protocol/lufa/LUFA-120730/LUFA/Drivers/USB/Core/AVR8/Template/Template_Endpoint_RW.c **** 
  42:../../protocol/lufa/LUFA-120730/LUFA/Drivers/USB/Core/AVR8/Template/Template_Endpoint_RW.c **** 	if ((ErrorCode = Endpoint_WaitUntilReady()))
 338               		.loc 3 42 0
 339 0016 0E94 0000 		call Endpoint_WaitUntilReady
 340               	.LVL29:
 341 001a 8111      		cpse r24,__zero_reg__
 342 001c 00C0      		rjmp .L31
  43:../../protocol/lufa/LUFA-120730/LUFA/Drivers/USB/Core/AVR8/Template/Template_Endpoint_RW.c **** 	  return ErrorCode;
  44:../../protocol/lufa/LUFA-120730/LUFA/Drivers/USB/Core/AVR8/Template/Template_Endpoint_RW.c **** 
  45:../../protocol/lufa/LUFA-120730/LUFA/Drivers/USB/Core/AVR8/Template/Template_Endpoint_RW.c **** 	if (BytesProcessed != NULL)
 343               		.loc 3 45 0
 344 001e 2097      		sbiw r28,0
 345 0020 01F0      		breq .L32
  46:../../protocol/lufa/LUFA-120730/LUFA/Drivers/USB/Core/AVR8/Template/Template_Endpoint_RW.c **** 	{
  47:../../protocol/lufa/LUFA-120730/LUFA/Drivers/USB/Core/AVR8/Template/Template_Endpoint_RW.c **** 		Length -= *BytesProcessed;
 346               		.loc 3 47 0
 347 0022 8881      		ld r24,Y
 348 0024 9981      		ldd r25,Y+1
 349               	.LVL30:
 350 0026 081B      		sub r16,r24
 351 0028 190B      		sbc r17,r25
 352               	.LVL31:
  48:../../protocol/lufa/LUFA-120730/LUFA/Drivers/USB/Core/AVR8/Template/Template_Endpoint_RW.c **** 		TEMPLATE_BUFFER_MOVE(DataStream, *BytesProcessed);
 353               		.loc 3 48 0
 354 002a E80E      		add r14,r24
 355 002c F91E      		adc r15,r25
 356               	.LVL32:
 357               	.L32:
  38:../../protocol/lufa/LUFA-120730/LUFA/Drivers/USB/Core/AVR8/Template/Template_Endpoint_RW.c **** 	uint8_t* DataStream      = ((uint8_t*)Buffer + TEMPLATE_BUFFER_OFFSET(Length));
 358               		.loc 3 38 0 discriminator 1
 359 002e C12C      		mov r12,__zero_reg__
 360 0030 D12C      		mov r13,__zero_reg__
 361               	.LVL33:
 362               	.L33:
  49:../../protocol/lufa/LUFA-120730/LUFA/Drivers/USB/Core/AVR8/Template/Template_Endpoint_RW.c **** 	}
  50:../../protocol/lufa/LUFA-120730/LUFA/Drivers/USB/Core/AVR8/Template/Template_Endpoint_RW.c **** 
  51:../../protocol/lufa/LUFA-120730/LUFA/Drivers/USB/Core/AVR8/Template/Template_Endpoint_RW.c **** 	while (Length)
 363               		.loc 3 51 0 discriminator 1
 364 0032 0115      		cp r16,__zero_reg__
 365 0034 1105      		cpc r17,__zero_reg__
 366 0036 01F0      		breq .L41
 367               	.LBB268:
 368               	.LBB269:
 360:../../protocol/lufa/LUFA-120730/LUFA/Drivers/USB/Core/AVR8/../AVR8/../AVR8/Endpoint_AVR8.h **** 				return ((UEINTX & (1 << RWAL)) ? true : false);
 369               		.loc 2 360 0
 370 0038 8091 E800 		lds r24,232
 371               	.LBE269:
 372               	.LBE268:
  52:../../protocol/lufa/LUFA-120730/LUFA/Drivers/USB/Core/AVR8/Template/Template_Endpoint_RW.c **** 	{
  53:../../protocol/lufa/LUFA-120730/LUFA/Drivers/USB/Core/AVR8/Template/Template_Endpoint_RW.c **** 		if (!(Endpoint_IsReadWriteAllowed()))
 373               		.loc 3 53 0
 374 003c 85FD      		sbrc r24,5
 375 003e 00C0      		rjmp .L34
 376               	.LBB270:
 377               	.LBB271:
 456:../../protocol/lufa/LUFA-120730/LUFA/Drivers/USB/Core/AVR8/../AVR8/../AVR8/Endpoint_AVR8.h **** 					UEINTX &= ~((1 << TXINI) | (1 << FIFOCON));
 378               		.loc 2 456 0
 379 0040 8091 E800 		lds r24,232
 380 0044 8E77      		andi r24,lo8(126)
 381 0046 8093 E800 		sts 232,r24
 382               	.LBE271:
 383               	.LBE270:
  54:../../protocol/lufa/LUFA-120730/LUFA/Drivers/USB/Core/AVR8/Template/Template_Endpoint_RW.c **** 		{
  55:../../protocol/lufa/LUFA-120730/LUFA/Drivers/USB/Core/AVR8/Template/Template_Endpoint_RW.c **** 			TEMPLATE_CLEAR_ENDPOINT();
  56:../../protocol/lufa/LUFA-120730/LUFA/Drivers/USB/Core/AVR8/Template/Template_Endpoint_RW.c **** 
  57:../../protocol/lufa/LUFA-120730/LUFA/Drivers/USB/Core/AVR8/Template/Template_Endpoint_RW.c **** 			#if !defined(INTERRUPT_CONTROL_ENDPOINT)
  58:../../protocol/lufa/LUFA-120730/LUFA/Drivers/USB/Core/AVR8/Template/Template_Endpoint_RW.c **** 			USB_USBTask();
  59:../../protocol/lufa/LUFA-120730/LUFA/Drivers/USB/Core/AVR8/Template/Template_Endpoint_RW.c **** 			#endif
  60:../../protocol/lufa/LUFA-120730/LUFA/Drivers/USB/Core/AVR8/Template/Template_Endpoint_RW.c **** 
  61:../../protocol/lufa/LUFA-120730/LUFA/Drivers/USB/Core/AVR8/Template/Template_Endpoint_RW.c **** 			if (BytesProcessed != NULL)
 384               		.loc 3 61 0
 385 004a 2097      		sbiw r28,0
 386 004c 01F0      		breq .L35
  62:../../protocol/lufa/LUFA-120730/LUFA/Drivers/USB/Core/AVR8/Template/Template_Endpoint_RW.c **** 			{
  63:../../protocol/lufa/LUFA-120730/LUFA/Drivers/USB/Core/AVR8/Template/Template_Endpoint_RW.c **** 				*BytesProcessed += BytesInTransfer;
 387               		.loc 3 63 0
 388 004e 8881      		ld r24,Y
 389 0050 9981      		ldd r25,Y+1
 390 0052 8C0D      		add r24,r12
 391 0054 9D1D      		adc r25,r13
 392 0056 9983      		std Y+1,r25
 393 0058 8883      		st Y,r24
  64:../../protocol/lufa/LUFA-120730/LUFA/Drivers/USB/Core/AVR8/Template/Template_Endpoint_RW.c **** 				return ENDPOINT_RWSTREAM_IncompleteTransfer;
 394               		.loc 3 64 0
 395 005a 85E0      		ldi r24,lo8(5)
 396 005c 00C0      		rjmp .L31
 397               	.L35:
  65:../../protocol/lufa/LUFA-120730/LUFA/Drivers/USB/Core/AVR8/Template/Template_Endpoint_RW.c **** 			}
  66:../../protocol/lufa/LUFA-120730/LUFA/Drivers/USB/Core/AVR8/Template/Template_Endpoint_RW.c **** 
  67:../../protocol/lufa/LUFA-120730/LUFA/Drivers/USB/Core/AVR8/Template/Template_Endpoint_RW.c **** 			if ((ErrorCode = Endpoint_WaitUntilReady()))
 398               		.loc 3 67 0
 399 005e 0E94 0000 		call Endpoint_WaitUntilReady
 400               	.LVL34:
 401 0062 8823      		tst r24
 402 0064 01F0      		breq .L33
 403 0066 00C0      		rjmp .L31
 404               	.LVL35:
 405               	.L34:
  68:../../protocol/lufa/LUFA-120730/LUFA/Drivers/USB/Core/AVR8/Template/Template_Endpoint_RW.c **** 			  return ErrorCode;
  69:../../protocol/lufa/LUFA-120730/LUFA/Drivers/USB/Core/AVR8/Template/Template_Endpoint_RW.c **** 		}
  70:../../protocol/lufa/LUFA-120730/LUFA/Drivers/USB/Core/AVR8/Template/Template_Endpoint_RW.c **** 		else
  71:../../protocol/lufa/LUFA-120730/LUFA/Drivers/USB/Core/AVR8/Template/Template_Endpoint_RW.c **** 		{
  72:../../protocol/lufa/LUFA-120730/LUFA/Drivers/USB/Core/AVR8/Template/Template_Endpoint_RW.c **** 			TEMPLATE_TRANSFER_BYTE(DataStream);
 406               		.loc 3 72 0
 407 0068 F701      		movw r30,r14
 408 006a 8191      		ld r24,Z+
 409 006c 7F01      		movw r14,r30
 410               	.LVL36:
 411               	.LBB272:
 412               	.LBB273:
 554:../../protocol/lufa/LUFA-120730/LUFA/Drivers/USB/Core/AVR8/../AVR8/../AVR8/Endpoint_AVR8.h **** 				UEDATX = Data;
 413               		.loc 2 554 0
 414 006e 8093 F100 		sts 241,r24
 415               	.LVL37:
 416               	.LBE273:
 417               	.LBE272:
  73:../../protocol/lufa/LUFA-120730/LUFA/Drivers/USB/Core/AVR8/Template/Template_Endpoint_RW.c **** 			TEMPLATE_BUFFER_MOVE(DataStream, 1);
  74:../../protocol/lufa/LUFA-120730/LUFA/Drivers/USB/Core/AVR8/Template/Template_Endpoint_RW.c **** 			Length--;
 418               		.loc 3 74 0
 419 0072 0150      		subi r16,1
 420 0074 1109      		sbc r17,__zero_reg__
 421               	.LVL38:
  75:../../protocol/lufa/LUFA-120730/LUFA/Drivers/USB/Core/AVR8/Template/Template_Endpoint_RW.c **** 			BytesInTransfer++;
 422               		.loc 3 75 0
 423 0076 FFEF      		ldi r31,-1
 424 0078 CF1A      		sub r12,r31
 425 007a DF0A      		sbc r13,r31
 426               	.LVL39:
 427 007c 00C0      		rjmp .L33
 428               	.LVL40:
 429               	.L41:
  76:../../protocol/lufa/LUFA-120730/LUFA/Drivers/USB/Core/AVR8/Template/Template_Endpoint_RW.c **** 		}
  77:../../protocol/lufa/LUFA-120730/LUFA/Drivers/USB/Core/AVR8/Template/Template_Endpoint_RW.c **** 	}
  78:../../protocol/lufa/LUFA-120730/LUFA/Drivers/USB/Core/AVR8/Template/Template_Endpoint_RW.c **** 
  79:../../protocol/lufa/LUFA-120730/LUFA/Drivers/USB/Core/AVR8/Template/Template_Endpoint_RW.c **** 	return ENDPOINT_RWSTREAM_NoError;
 430               		.loc 3 79 0
 431 007e 80E0      		ldi r24,0
 432               	.LVL41:
 433               	.L31:
 434               	/* epilogue start */
  80:../../protocol/lufa/LUFA-120730/LUFA/Drivers/USB/Core/AVR8/Template/Template_Endpoint_RW.c **** }
 435               		.loc 3 80 0
 436 0080 DF91      		pop r29
 437 0082 CF91      		pop r28
 438               	.LVL42:
 439 0084 1F91      		pop r17
 440 0086 0F91      		pop r16
 441               	.LVL43:
 442 0088 FF90      		pop r15
 443 008a EF90      		pop r14
 444               	.LVL44:
 445 008c DF90      		pop r13
 446 008e CF90      		pop r12
 447 0090 0895      		ret
 448               		.cfi_endproc
 449               	.LFE86:
 451               		.section	.text.Endpoint_Write_Stream_BE,"ax",@progbits
 452               	.global	Endpoint_Write_Stream_BE
 454               	Endpoint_Write_Stream_BE:
 455               	.LFB87:
  37:../../protocol/lufa/LUFA-120730/LUFA/Drivers/USB/Core/AVR8/Template/Template_Endpoint_RW.c **** {
 456               		.loc 3 37 0
 457               		.cfi_startproc
 458               	.LVL45:
 459 0000 CF92      		push r12
 460               	.LCFI20:
 461               		.cfi_def_cfa_offset 3
 462               		.cfi_offset 12, -2
 463 0002 DF92      		push r13
 464               	.LCFI21:
 465               		.cfi_def_cfa_offset 4
 466               		.cfi_offset 13, -3
 467 0004 EF92      		push r14
 468               	.LCFI22:
 469               		.cfi_def_cfa_offset 5
 470               		.cfi_offset 14, -4
 471 0006 FF92      		push r15
 472               	.LCFI23:
 473               		.cfi_def_cfa_offset 6
 474               		.cfi_offset 15, -5
 475 0008 0F93      		push r16
 476               	.LCFI24:
 477               		.cfi_def_cfa_offset 7
 478               		.cfi_offset 16, -6
 479 000a 1F93      		push r17
 480               	.LCFI25:
 481               		.cfi_def_cfa_offset 8
 482               		.cfi_offset 17, -7
 483 000c CF93      		push r28
 484               	.LCFI26:
 485               		.cfi_def_cfa_offset 9
 486               		.cfi_offset 28, -8
 487 000e DF93      		push r29
 488               	.LCFI27:
 489               		.cfi_def_cfa_offset 10
 490               		.cfi_offset 29, -9
 491               	/* prologue: function */
 492               	/* frame size = 0 */
 493               	/* stack size = 8 */
 494               	.L__stack_usage = 8
 495 0010 6C01      		movw r12,r24
 496 0012 8B01      		movw r16,r22
 497 0014 7A01      		movw r14,r20
 498               	.LVL46:
  42:../../protocol/lufa/LUFA-120730/LUFA/Drivers/USB/Core/AVR8/Template/Template_Endpoint_RW.c **** 	if ((ErrorCode = Endpoint_WaitUntilReady()))
 499               		.loc 3 42 0
 500 0016 0E94 0000 		call Endpoint_WaitUntilReady
 501               	.LVL47:
 502 001a 8111      		cpse r24,__zero_reg__
 503 001c 00C0      		rjmp .L43
  38:../../protocol/lufa/LUFA-120730/LUFA/Drivers/USB/Core/AVR8/Template/Template_Endpoint_RW.c **** 	uint8_t* DataStream      = ((uint8_t*)Buffer + TEMPLATE_BUFFER_OFFSET(Length));
 504               		.loc 3 38 0
 505 001e E801      		movw r28,r16
 506 0020 2197      		sbiw r28,1
 507               	.LVL48:
 508 0022 CC0D      		add r28,r12
 509 0024 DD1D      		adc r29,r13
 510               	.LVL49:
  45:../../protocol/lufa/LUFA-120730/LUFA/Drivers/USB/Core/AVR8/Template/Template_Endpoint_RW.c **** 	if (BytesProcessed != NULL)
 511               		.loc 3 45 0
 512 0026 E114      		cp r14,__zero_reg__
 513 0028 F104      		cpc r15,__zero_reg__
 514 002a 01F0      		breq .L44
  47:../../protocol/lufa/LUFA-120730/LUFA/Drivers/USB/Core/AVR8/Template/Template_Endpoint_RW.c **** 		Length -= *BytesProcessed;
 515               		.loc 3 47 0
 516 002c F701      		movw r30,r14
 517 002e 8081      		ld r24,Z
 518 0030 9181      		ldd r25,Z+1
 519               	.LVL50:
 520 0032 081B      		sub r16,r24
 521 0034 190B      		sbc r17,r25
 522               	.LVL51:
  48:../../protocol/lufa/LUFA-120730/LUFA/Drivers/USB/Core/AVR8/Template/Template_Endpoint_RW.c **** 		TEMPLATE_BUFFER_MOVE(DataStream, *BytesProcessed);
 523               		.loc 3 48 0
 524 0036 C81B      		sub r28,r24
 525 0038 D90B      		sbc r29,r25
 526               	.LVL52:
 527               	.L44:
  37:../../protocol/lufa/LUFA-120730/LUFA/Drivers/USB/Core/AVR8/Template/Template_Endpoint_RW.c **** {
 528               		.loc 3 37 0 discriminator 1
 529 003a C12C      		mov r12,__zero_reg__
 530 003c D12C      		mov r13,__zero_reg__
 531               	.LVL53:
 532               	.L45:
  51:../../protocol/lufa/LUFA-120730/LUFA/Drivers/USB/Core/AVR8/Template/Template_Endpoint_RW.c **** 	while (Length)
 533               		.loc 3 51 0 discriminator 1
 534 003e 0115      		cp r16,__zero_reg__
 535 0040 1105      		cpc r17,__zero_reg__
 536 0042 01F0      		breq .L55
 537               	.LBB274:
 538               	.LBB275:
 360:../../protocol/lufa/LUFA-120730/LUFA/Drivers/USB/Core/AVR8/../AVR8/../AVR8/Endpoint_AVR8.h **** 				return ((UEINTX & (1 << RWAL)) ? true : false);
 539               		.loc 2 360 0
 540 0044 8091 E800 		lds r24,232
 541               	.LBE275:
 542               	.LBE274:
  53:../../protocol/lufa/LUFA-120730/LUFA/Drivers/USB/Core/AVR8/Template/Template_Endpoint_RW.c **** 		if (!(Endpoint_IsReadWriteAllowed()))
 543               		.loc 3 53 0
 544 0048 85FD      		sbrc r24,5
 545 004a 00C0      		rjmp .L46
 546               	.LBB276:
 547               	.LBB277:
 456:../../protocol/lufa/LUFA-120730/LUFA/Drivers/USB/Core/AVR8/../AVR8/../AVR8/Endpoint_AVR8.h **** 					UEINTX &= ~((1 << TXINI) | (1 << FIFOCON));
 548               		.loc 2 456 0
 549 004c 8091 E800 		lds r24,232
 550 0050 8E77      		andi r24,lo8(126)
 551 0052 8093 E800 		sts 232,r24
 552               	.LBE277:
 553               	.LBE276:
  61:../../protocol/lufa/LUFA-120730/LUFA/Drivers/USB/Core/AVR8/Template/Template_Endpoint_RW.c **** 			if (BytesProcessed != NULL)
 554               		.loc 3 61 0
 555 0056 E114      		cp r14,__zero_reg__
 556 0058 F104      		cpc r15,__zero_reg__
 557 005a 01F0      		breq .L47
  63:../../protocol/lufa/LUFA-120730/LUFA/Drivers/USB/Core/AVR8/Template/Template_Endpoint_RW.c **** 				*BytesProcessed += BytesInTransfer;
 558               		.loc 3 63 0
 559 005c F701      		movw r30,r14
 560 005e 8081      		ld r24,Z
 561 0060 9181      		ldd r25,Z+1
 562 0062 8C0D      		add r24,r12
 563 0064 9D1D      		adc r25,r13
 564 0066 9183      		std Z+1,r25
 565 0068 8083      		st Z,r24
  64:../../protocol/lufa/LUFA-120730/LUFA/Drivers/USB/Core/AVR8/Template/Template_Endpoint_RW.c **** 				return ENDPOINT_RWSTREAM_IncompleteTransfer;
 566               		.loc 3 64 0
 567 006a 85E0      		ldi r24,lo8(5)
 568 006c 00C0      		rjmp .L43
 569               	.L47:
  67:../../protocol/lufa/LUFA-120730/LUFA/Drivers/USB/Core/AVR8/Template/Template_Endpoint_RW.c **** 			if ((ErrorCode = Endpoint_WaitUntilReady()))
 570               		.loc 3 67 0
 571 006e 0E94 0000 		call Endpoint_WaitUntilReady
 572               	.LVL54:
 573 0072 8823      		tst r24
 574 0074 01F0      		breq .L45
 575 0076 00C0      		rjmp .L43
 576               	.LVL55:
 577               	.L46:
  72:../../protocol/lufa/LUFA-120730/LUFA/Drivers/USB/Core/AVR8/Template/Template_Endpoint_RW.c **** 			TEMPLATE_TRANSFER_BYTE(DataStream);
 578               		.loc 3 72 0
 579 0078 8881      		ld r24,Y
 580               	.LVL56:
 581               	.LBB278:
 582               	.LBB279:
 554:../../protocol/lufa/LUFA-120730/LUFA/Drivers/USB/Core/AVR8/../AVR8/../AVR8/Endpoint_AVR8.h **** 				UEDATX = Data;
 583               		.loc 2 554 0
 584 007a 8093 F100 		sts 241,r24
 585               	.LBE279:
 586               	.LBE278:
  73:../../protocol/lufa/LUFA-120730/LUFA/Drivers/USB/Core/AVR8/Template/Template_Endpoint_RW.c **** 			TEMPLATE_BUFFER_MOVE(DataStream, 1);
 587               		.loc 3 73 0
 588 007e 2197      		sbiw r28,1
 589               	.LVL57:
  74:../../protocol/lufa/LUFA-120730/LUFA/Drivers/USB/Core/AVR8/Template/Template_Endpoint_RW.c **** 			Length--;
 590               		.loc 3 74 0
 591 0080 0150      		subi r16,1
 592 0082 1109      		sbc r17,__zero_reg__
 593               	.LVL58:
  75:../../protocol/lufa/LUFA-120730/LUFA/Drivers/USB/Core/AVR8/Template/Template_Endpoint_RW.c **** 			BytesInTransfer++;
 594               		.loc 3 75 0
 595 0084 FFEF      		ldi r31,-1
 596 0086 CF1A      		sub r12,r31
 597 0088 DF0A      		sbc r13,r31
 598               	.LVL59:
 599 008a 00C0      		rjmp .L45
 600               	.LVL60:
 601               	.L55:
  79:../../protocol/lufa/LUFA-120730/LUFA/Drivers/USB/Core/AVR8/Template/Template_Endpoint_RW.c **** 	return ENDPOINT_RWSTREAM_NoError;
 602               		.loc 3 79 0
 603 008c 80E0      		ldi r24,0
 604               	.LVL61:
 605               	.L43:
 606               	/* epilogue start */
 607               		.loc 3 80 0
 608 008e DF91      		pop r29
 609 0090 CF91      		pop r28
 610 0092 1F91      		pop r17
 611 0094 0F91      		pop r16
 612               	.LVL62:
 613 0096 FF90      		pop r15
 614 0098 EF90      		pop r14
 615               	.LVL63:
 616 009a DF90      		pop r13
 617 009c CF90      		pop r12
 618 009e 0895      		ret
 619               		.cfi_endproc
 620               	.LFE87:
 622               		.section	.text.Endpoint_Read_Stream_LE,"ax",@progbits
 623               	.global	Endpoint_Read_Stream_LE
 625               	Endpoint_Read_Stream_LE:
 626               	.LFB88:
  37:../../protocol/lufa/LUFA-120730/LUFA/Drivers/USB/Core/AVR8/Template/Template_Endpoint_RW.c **** {
 627               		.loc 3 37 0
 628               		.cfi_startproc
 629               	.LVL64:
 630 0000 CF92      		push r12
 631               	.LCFI28:
 632               		.cfi_def_cfa_offset 3
 633               		.cfi_offset 12, -2
 634 0002 DF92      		push r13
 635               	.LCFI29:
 636               		.cfi_def_cfa_offset 4
 637               		.cfi_offset 13, -3
 638 0004 EF92      		push r14
 639               	.LCFI30:
 640               		.cfi_def_cfa_offset 5
 641               		.cfi_offset 14, -4
 642 0006 FF92      		push r15
 643               	.LCFI31:
 644               		.cfi_def_cfa_offset 6
 645               		.cfi_offset 15, -5
 646 0008 0F93      		push r16
 647               	.LCFI32:
 648               		.cfi_def_cfa_offset 7
 649               		.cfi_offset 16, -6
 650 000a 1F93      		push r17
 651               	.LCFI33:
 652               		.cfi_def_cfa_offset 8
 653               		.cfi_offset 17, -7
 654 000c CF93      		push r28
 655               	.LCFI34:
 656               		.cfi_def_cfa_offset 9
 657               		.cfi_offset 28, -8
 658 000e DF93      		push r29
 659               	.LCFI35:
 660               		.cfi_def_cfa_offset 10
 661               		.cfi_offset 29, -9
 662               	/* prologue: function */
 663               	/* frame size = 0 */
 664               	/* stack size = 8 */
 665               	.L__stack_usage = 8
 666 0010 7C01      		movw r14,r24
 667 0012 8B01      		movw r16,r22
 668 0014 EA01      		movw r28,r20
 669               	.LVL65:
  42:../../protocol/lufa/LUFA-120730/LUFA/Drivers/USB/Core/AVR8/Template/Template_Endpoint_RW.c **** 	if ((ErrorCode = Endpoint_WaitUntilReady()))
 670               		.loc 3 42 0
 671 0016 0E94 0000 		call Endpoint_WaitUntilReady
 672               	.LVL66:
 673 001a 8111      		cpse r24,__zero_reg__
 674 001c 00C0      		rjmp .L57
  45:../../protocol/lufa/LUFA-120730/LUFA/Drivers/USB/Core/AVR8/Template/Template_Endpoint_RW.c **** 	if (BytesProcessed != NULL)
 675               		.loc 3 45 0
 676 001e 2097      		sbiw r28,0
 677 0020 01F0      		breq .L58
  47:../../protocol/lufa/LUFA-120730/LUFA/Drivers/USB/Core/AVR8/Template/Template_Endpoint_RW.c **** 		Length -= *BytesProcessed;
 678               		.loc 3 47 0
 679 0022 8881      		ld r24,Y
 680 0024 9981      		ldd r25,Y+1
 681               	.LVL67:
 682 0026 081B      		sub r16,r24
 683 0028 190B      		sbc r17,r25
 684               	.LVL68:
  48:../../protocol/lufa/LUFA-120730/LUFA/Drivers/USB/Core/AVR8/Template/Template_Endpoint_RW.c **** 		TEMPLATE_BUFFER_MOVE(DataStream, *BytesProcessed);
 685               		.loc 3 48 0
 686 002a E80E      		add r14,r24
 687 002c F91E      		adc r15,r25
 688               	.LVL69:
 689               	.L58:
  38:../../protocol/lufa/LUFA-120730/LUFA/Drivers/USB/Core/AVR8/Template/Template_Endpoint_RW.c **** 	uint8_t* DataStream      = ((uint8_t*)Buffer + TEMPLATE_BUFFER_OFFSET(Length));
 690               		.loc 3 38 0 discriminator 1
 691 002e C12C      		mov r12,__zero_reg__
 692 0030 D12C      		mov r13,__zero_reg__
 693               	.LVL70:
 694               	.L59:
  51:../../protocol/lufa/LUFA-120730/LUFA/Drivers/USB/Core/AVR8/Template/Template_Endpoint_RW.c **** 	while (Length)
 695               		.loc 3 51 0 discriminator 1
 696 0032 0115      		cp r16,__zero_reg__
 697 0034 1105      		cpc r17,__zero_reg__
 698 0036 01F0      		breq .L67
 699               	.LBB280:
 700               	.LBB281:
 360:../../protocol/lufa/LUFA-120730/LUFA/Drivers/USB/Core/AVR8/../AVR8/../AVR8/Endpoint_AVR8.h **** 				return ((UEINTX & (1 << RWAL)) ? true : false);
 701               		.loc 2 360 0
 702 0038 8091 E800 		lds r24,232
 703               	.LBE281:
 704               	.LBE280:
  53:../../protocol/lufa/LUFA-120730/LUFA/Drivers/USB/Core/AVR8/Template/Template_Endpoint_RW.c **** 		if (!(Endpoint_IsReadWriteAllowed()))
 705               		.loc 3 53 0
 706 003c 85FD      		sbrc r24,5
 707 003e 00C0      		rjmp .L60
 708               	.LBB282:
 709               	.LBB283:
 471:../../protocol/lufa/LUFA-120730/LUFA/Drivers/USB/Core/AVR8/../AVR8/../AVR8/Endpoint_AVR8.h **** 					UEINTX &= ~((1 << RXOUTI) | (1 << FIFOCON));
 710               		.loc 2 471 0
 711 0040 8091 E800 		lds r24,232
 712 0044 8B77      		andi r24,lo8(123)
 713 0046 8093 E800 		sts 232,r24
 714               	.LBE283:
 715               	.LBE282:
  61:../../protocol/lufa/LUFA-120730/LUFA/Drivers/USB/Core/AVR8/Template/Template_Endpoint_RW.c **** 			if (BytesProcessed != NULL)
 716               		.loc 3 61 0
 717 004a 2097      		sbiw r28,0
 718 004c 01F0      		breq .L61
  63:../../protocol/lufa/LUFA-120730/LUFA/Drivers/USB/Core/AVR8/Template/Template_Endpoint_RW.c **** 				*BytesProcessed += BytesInTransfer;
 719               		.loc 3 63 0
 720 004e 8881      		ld r24,Y
 721 0050 9981      		ldd r25,Y+1
 722 0052 8C0D      		add r24,r12
 723 0054 9D1D      		adc r25,r13
 724 0056 9983      		std Y+1,r25
 725 0058 8883      		st Y,r24
  64:../../protocol/lufa/LUFA-120730/LUFA/Drivers/USB/Core/AVR8/Template/Template_Endpoint_RW.c **** 				return ENDPOINT_RWSTREAM_IncompleteTransfer;
 726               		.loc 3 64 0
 727 005a 85E0      		ldi r24,lo8(5)
 728 005c 00C0      		rjmp .L57
 729               	.L61:
  67:../../protocol/lufa/LUFA-120730/LUFA/Drivers/USB/Core/AVR8/Template/Template_Endpoint_RW.c **** 			if ((ErrorCode = Endpoint_WaitUntilReady()))
 730               		.loc 3 67 0
 731 005e 0E94 0000 		call Endpoint_WaitUntilReady
 732               	.LVL71:
 733 0062 8823      		tst r24
 734 0064 01F0      		breq .L59
 735 0066 00C0      		rjmp .L57
 736               	.LVL72:
 737               	.L60:
 738               	.LBB284:
 739               	.LBB285:
 542:../../protocol/lufa/LUFA-120730/LUFA/Drivers/USB/Core/AVR8/../AVR8/../AVR8/Endpoint_AVR8.h **** 				return UEDATX;
 740               		.loc 2 542 0
 741 0068 8091 F100 		lds r24,241
 742               	.LBE285:
 743               	.LBE284:
  72:../../protocol/lufa/LUFA-120730/LUFA/Drivers/USB/Core/AVR8/Template/Template_Endpoint_RW.c **** 			TEMPLATE_TRANSFER_BYTE(DataStream);
 744               		.loc 3 72 0
 745 006c F701      		movw r30,r14
 746 006e 8193      		st Z+,r24
 747 0070 7F01      		movw r14,r30
 748               	.LVL73:
  74:../../protocol/lufa/LUFA-120730/LUFA/Drivers/USB/Core/AVR8/Template/Template_Endpoint_RW.c **** 			Length--;
 749               		.loc 3 74 0
 750 0072 0150      		subi r16,1
 751 0074 1109      		sbc r17,__zero_reg__
 752               	.LVL74:
  75:../../protocol/lufa/LUFA-120730/LUFA/Drivers/USB/Core/AVR8/Template/Template_Endpoint_RW.c **** 			BytesInTransfer++;
 753               		.loc 3 75 0
 754 0076 FFEF      		ldi r31,-1
 755 0078 CF1A      		sub r12,r31
 756 007a DF0A      		sbc r13,r31
 757               	.LVL75:
 758 007c 00C0      		rjmp .L59
 759               	.L67:
  79:../../protocol/lufa/LUFA-120730/LUFA/Drivers/USB/Core/AVR8/Template/Template_Endpoint_RW.c **** 	return ENDPOINT_RWSTREAM_NoError;
 760               		.loc 3 79 0
 761 007e 80E0      		ldi r24,0
 762               	.LVL76:
 763               	.L57:
 764               	/* epilogue start */
 765               		.loc 3 80 0
 766 0080 DF91      		pop r29
 767 0082 CF91      		pop r28
 768               	.LVL77:
 769 0084 1F91      		pop r17
 770 0086 0F91      		pop r16
 771               	.LVL78:
 772 0088 FF90      		pop r15
 773 008a EF90      		pop r14
 774               	.LVL79:
 775 008c DF90      		pop r13
 776 008e CF90      		pop r12
 777 0090 0895      		ret
 778               		.cfi_endproc
 779               	.LFE88:
 781               		.section	.text.Endpoint_Read_Stream_BE,"ax",@progbits
 782               	.global	Endpoint_Read_Stream_BE
 784               	Endpoint_Read_Stream_BE:
 785               	.LFB89:
  37:../../protocol/lufa/LUFA-120730/LUFA/Drivers/USB/Core/AVR8/Template/Template_Endpoint_RW.c **** {
 786               		.loc 3 37 0
 787               		.cfi_startproc
 788               	.LVL80:
 789 0000 CF92      		push r12
 790               	.LCFI36:
 791               		.cfi_def_cfa_offset 3
 792               		.cfi_offset 12, -2
 793 0002 DF92      		push r13
 794               	.LCFI37:
 795               		.cfi_def_cfa_offset 4
 796               		.cfi_offset 13, -3
 797 0004 EF92      		push r14
 798               	.LCFI38:
 799               		.cfi_def_cfa_offset 5
 800               		.cfi_offset 14, -4
 801 0006 FF92      		push r15
 802               	.LCFI39:
 803               		.cfi_def_cfa_offset 6
 804               		.cfi_offset 15, -5
 805 0008 0F93      		push r16
 806               	.LCFI40:
 807               		.cfi_def_cfa_offset 7
 808               		.cfi_offset 16, -6
 809 000a 1F93      		push r17
 810               	.LCFI41:
 811               		.cfi_def_cfa_offset 8
 812               		.cfi_offset 17, -7
 813 000c CF93      		push r28
 814               	.LCFI42:
 815               		.cfi_def_cfa_offset 9
 816               		.cfi_offset 28, -8
 817 000e DF93      		push r29
 818               	.LCFI43:
 819               		.cfi_def_cfa_offset 10
 820               		.cfi_offset 29, -9
 821               	/* prologue: function */
 822               	/* frame size = 0 */
 823               	/* stack size = 8 */
 824               	.L__stack_usage = 8
 825 0010 6C01      		movw r12,r24
 826 0012 8B01      		movw r16,r22
 827 0014 7A01      		movw r14,r20
 828               	.LVL81:
  42:../../protocol/lufa/LUFA-120730/LUFA/Drivers/USB/Core/AVR8/Template/Template_Endpoint_RW.c **** 	if ((ErrorCode = Endpoint_WaitUntilReady()))
 829               		.loc 3 42 0
 830 0016 0E94 0000 		call Endpoint_WaitUntilReady
 831               	.LVL82:
 832 001a 8111      		cpse r24,__zero_reg__
 833 001c 00C0      		rjmp .L69
  38:../../protocol/lufa/LUFA-120730/LUFA/Drivers/USB/Core/AVR8/Template/Template_Endpoint_RW.c **** 	uint8_t* DataStream      = ((uint8_t*)Buffer + TEMPLATE_BUFFER_OFFSET(Length));
 834               		.loc 3 38 0
 835 001e E801      		movw r28,r16
 836 0020 2197      		sbiw r28,1
 837               	.LVL83:
 838 0022 CC0D      		add r28,r12
 839 0024 DD1D      		adc r29,r13
 840               	.LVL84:
  45:../../protocol/lufa/LUFA-120730/LUFA/Drivers/USB/Core/AVR8/Template/Template_Endpoint_RW.c **** 	if (BytesProcessed != NULL)
 841               		.loc 3 45 0
 842 0026 E114      		cp r14,__zero_reg__
 843 0028 F104      		cpc r15,__zero_reg__
 844 002a 01F0      		breq .L70
  47:../../protocol/lufa/LUFA-120730/LUFA/Drivers/USB/Core/AVR8/Template/Template_Endpoint_RW.c **** 		Length -= *BytesProcessed;
 845               		.loc 3 47 0
 846 002c F701      		movw r30,r14
 847 002e 8081      		ld r24,Z
 848 0030 9181      		ldd r25,Z+1
 849               	.LVL85:
 850 0032 081B      		sub r16,r24
 851 0034 190B      		sbc r17,r25
 852               	.LVL86:
  48:../../protocol/lufa/LUFA-120730/LUFA/Drivers/USB/Core/AVR8/Template/Template_Endpoint_RW.c **** 		TEMPLATE_BUFFER_MOVE(DataStream, *BytesProcessed);
 853               		.loc 3 48 0
 854 0036 C81B      		sub r28,r24
 855 0038 D90B      		sbc r29,r25
 856               	.LVL87:
 857               	.L70:
  37:../../protocol/lufa/LUFA-120730/LUFA/Drivers/USB/Core/AVR8/Template/Template_Endpoint_RW.c **** {
 858               		.loc 3 37 0 discriminator 1
 859 003a C12C      		mov r12,__zero_reg__
 860 003c D12C      		mov r13,__zero_reg__
 861               	.LVL88:
 862               	.L71:
  51:../../protocol/lufa/LUFA-120730/LUFA/Drivers/USB/Core/AVR8/Template/Template_Endpoint_RW.c **** 	while (Length)
 863               		.loc 3 51 0 discriminator 1
 864 003e 0115      		cp r16,__zero_reg__
 865 0040 1105      		cpc r17,__zero_reg__
 866 0042 01F0      		breq .L81
 867               	.LBB286:
 868               	.LBB287:
 360:../../protocol/lufa/LUFA-120730/LUFA/Drivers/USB/Core/AVR8/../AVR8/../AVR8/Endpoint_AVR8.h **** 				return ((UEINTX & (1 << RWAL)) ? true : false);
 869               		.loc 2 360 0
 870 0044 8091 E800 		lds r24,232
 871               	.LBE287:
 872               	.LBE286:
  53:../../protocol/lufa/LUFA-120730/LUFA/Drivers/USB/Core/AVR8/Template/Template_Endpoint_RW.c **** 		if (!(Endpoint_IsReadWriteAllowed()))
 873               		.loc 3 53 0
 874 0048 85FD      		sbrc r24,5
 875 004a 00C0      		rjmp .L72
 876               	.LBB288:
 877               	.LBB289:
 471:../../protocol/lufa/LUFA-120730/LUFA/Drivers/USB/Core/AVR8/../AVR8/../AVR8/Endpoint_AVR8.h **** 					UEINTX &= ~((1 << RXOUTI) | (1 << FIFOCON));
 878               		.loc 2 471 0
 879 004c 8091 E800 		lds r24,232
 880 0050 8B77      		andi r24,lo8(123)
 881 0052 8093 E800 		sts 232,r24
 882               	.LBE289:
 883               	.LBE288:
  61:../../protocol/lufa/LUFA-120730/LUFA/Drivers/USB/Core/AVR8/Template/Template_Endpoint_RW.c **** 			if (BytesProcessed != NULL)
 884               		.loc 3 61 0
 885 0056 E114      		cp r14,__zero_reg__
 886 0058 F104      		cpc r15,__zero_reg__
 887 005a 01F0      		breq .L73
  63:../../protocol/lufa/LUFA-120730/LUFA/Drivers/USB/Core/AVR8/Template/Template_Endpoint_RW.c **** 				*BytesProcessed += BytesInTransfer;
 888               		.loc 3 63 0
 889 005c F701      		movw r30,r14
 890 005e 8081      		ld r24,Z
 891 0060 9181      		ldd r25,Z+1
 892 0062 8C0D      		add r24,r12
 893 0064 9D1D      		adc r25,r13
 894 0066 9183      		std Z+1,r25
 895 0068 8083      		st Z,r24
  64:../../protocol/lufa/LUFA-120730/LUFA/Drivers/USB/Core/AVR8/Template/Template_Endpoint_RW.c **** 				return ENDPOINT_RWSTREAM_IncompleteTransfer;
 896               		.loc 3 64 0
 897 006a 85E0      		ldi r24,lo8(5)
 898 006c 00C0      		rjmp .L69
 899               	.L73:
  67:../../protocol/lufa/LUFA-120730/LUFA/Drivers/USB/Core/AVR8/Template/Template_Endpoint_RW.c **** 			if ((ErrorCode = Endpoint_WaitUntilReady()))
 900               		.loc 3 67 0
 901 006e 0E94 0000 		call Endpoint_WaitUntilReady
 902               	.LVL89:
 903 0072 8823      		tst r24
 904 0074 01F0      		breq .L71
 905 0076 00C0      		rjmp .L69
 906               	.LVL90:
 907               	.L72:
 908               	.LBB290:
 909               	.LBB291:
 542:../../protocol/lufa/LUFA-120730/LUFA/Drivers/USB/Core/AVR8/../AVR8/../AVR8/Endpoint_AVR8.h **** 				return UEDATX;
 910               		.loc 2 542 0
 911 0078 8091 F100 		lds r24,241
 912               	.LBE291:
 913               	.LBE290:
  72:../../protocol/lufa/LUFA-120730/LUFA/Drivers/USB/Core/AVR8/Template/Template_Endpoint_RW.c **** 			TEMPLATE_TRANSFER_BYTE(DataStream);
 914               		.loc 3 72 0
 915 007c 8883      		st Y,r24
  73:../../protocol/lufa/LUFA-120730/LUFA/Drivers/USB/Core/AVR8/Template/Template_Endpoint_RW.c **** 			TEMPLATE_BUFFER_MOVE(DataStream, 1);
 916               		.loc 3 73 0
 917 007e 2197      		sbiw r28,1
 918               	.LVL91:
  74:../../protocol/lufa/LUFA-120730/LUFA/Drivers/USB/Core/AVR8/Template/Template_Endpoint_RW.c **** 			Length--;
 919               		.loc 3 74 0
 920 0080 0150      		subi r16,1
 921 0082 1109      		sbc r17,__zero_reg__
 922               	.LVL92:
  75:../../protocol/lufa/LUFA-120730/LUFA/Drivers/USB/Core/AVR8/Template/Template_Endpoint_RW.c **** 			BytesInTransfer++;
 923               		.loc 3 75 0
 924 0084 FFEF      		ldi r31,-1
 925 0086 CF1A      		sub r12,r31
 926 0088 DF0A      		sbc r13,r31
 927               	.LVL93:
 928 008a 00C0      		rjmp .L71
 929               	.L81:
  79:../../protocol/lufa/LUFA-120730/LUFA/Drivers/USB/Core/AVR8/Template/Template_Endpoint_RW.c **** 	return ENDPOINT_RWSTREAM_NoError;
 930               		.loc 3 79 0
 931 008c 80E0      		ldi r24,0
 932               	.LVL94:
 933               	.L69:
 934               	/* epilogue start */
 935               		.loc 3 80 0
 936 008e DF91      		pop r29
 937 0090 CF91      		pop r28
 938 0092 1F91      		pop r17
 939 0094 0F91      		pop r16
 940               	.LVL95:
 941 0096 FF90      		pop r15
 942 0098 EF90      		pop r14
 943               	.LVL96:
 944 009a DF90      		pop r13
 945 009c CF90      		pop r12
 946 009e 0895      		ret
 947               		.cfi_endproc
 948               	.LFE89:
 950               		.section	.text.Endpoint_Write_PStream_LE,"ax",@progbits
 951               	.global	Endpoint_Write_PStream_LE
 953               	Endpoint_Write_PStream_LE:
 954               	.LFB90:
  37:../../protocol/lufa/LUFA-120730/LUFA/Drivers/USB/Core/AVR8/Template/Template_Endpoint_RW.c **** {
 955               		.loc 3 37 0
 956               		.cfi_startproc
 957               	.LVL97:
 958 0000 CF92      		push r12
 959               	.LCFI44:
 960               		.cfi_def_cfa_offset 3
 961               		.cfi_offset 12, -2
 962 0002 DF92      		push r13
 963               	.LCFI45:
 964               		.cfi_def_cfa_offset 4
 965               		.cfi_offset 13, -3
 966 0004 EF92      		push r14
 967               	.LCFI46:
 968               		.cfi_def_cfa_offset 5
 969               		.cfi_offset 14, -4
 970 0006 FF92      		push r15
 971               	.LCFI47:
 972               		.cfi_def_cfa_offset 6
 973               		.cfi_offset 15, -5
 974 0008 0F93      		push r16
 975               	.LCFI48:
 976               		.cfi_def_cfa_offset 7
 977               		.cfi_offset 16, -6
 978 000a 1F93      		push r17
 979               	.LCFI49:
 980               		.cfi_def_cfa_offset 8
 981               		.cfi_offset 17, -7
 982 000c CF93      		push r28
 983               	.LCFI50:
 984               		.cfi_def_cfa_offset 9
 985               		.cfi_offset 28, -8
 986 000e DF93      		push r29
 987               	.LCFI51:
 988               		.cfi_def_cfa_offset 10
 989               		.cfi_offset 29, -9
 990               	/* prologue: function */
 991               	/* frame size = 0 */
 992               	/* stack size = 8 */
 993               	.L__stack_usage = 8
 994 0010 7C01      		movw r14,r24
 995 0012 8B01      		movw r16,r22
 996 0014 EA01      		movw r28,r20
 997               	.LVL98:
  42:../../protocol/lufa/LUFA-120730/LUFA/Drivers/USB/Core/AVR8/Template/Template_Endpoint_RW.c **** 	if ((ErrorCode = Endpoint_WaitUntilReady()))
 998               		.loc 3 42 0
 999 0016 0E94 0000 		call Endpoint_WaitUntilReady
 1000               	.LVL99:
 1001 001a 8111      		cpse r24,__zero_reg__
 1002 001c 00C0      		rjmp .L83
  45:../../protocol/lufa/LUFA-120730/LUFA/Drivers/USB/Core/AVR8/Template/Template_Endpoint_RW.c **** 	if (BytesProcessed != NULL)
 1003               		.loc 3 45 0
 1004 001e 2097      		sbiw r28,0
 1005 0020 01F0      		breq .L84
  47:../../protocol/lufa/LUFA-120730/LUFA/Drivers/USB/Core/AVR8/Template/Template_Endpoint_RW.c **** 		Length -= *BytesProcessed;
 1006               		.loc 3 47 0
 1007 0022 8881      		ld r24,Y
 1008 0024 9981      		ldd r25,Y+1
 1009               	.LVL100:
 1010 0026 081B      		sub r16,r24
 1011 0028 190B      		sbc r17,r25
 1012               	.LVL101:
  48:../../protocol/lufa/LUFA-120730/LUFA/Drivers/USB/Core/AVR8/Template/Template_Endpoint_RW.c **** 		TEMPLATE_BUFFER_MOVE(DataStream, *BytesProcessed);
 1013               		.loc 3 48 0
 1014 002a E80E      		add r14,r24
 1015 002c F91E      		adc r15,r25
 1016               	.LVL102:
 1017               	.L84:
  38:../../protocol/lufa/LUFA-120730/LUFA/Drivers/USB/Core/AVR8/Template/Template_Endpoint_RW.c **** 	uint8_t* DataStream      = ((uint8_t*)Buffer + TEMPLATE_BUFFER_OFFSET(Length));
 1018               		.loc 3 38 0 discriminator 1
 1019 002e C12C      		mov r12,__zero_reg__
 1020 0030 D12C      		mov r13,__zero_reg__
 1021               	.LVL103:
 1022               	.L85:
  51:../../protocol/lufa/LUFA-120730/LUFA/Drivers/USB/Core/AVR8/Template/Template_Endpoint_RW.c **** 	while (Length)
 1023               		.loc 3 51 0 discriminator 1
 1024 0032 0115      		cp r16,__zero_reg__
 1025 0034 1105      		cpc r17,__zero_reg__
 1026 0036 01F0      		breq .L93
 1027               	.LBB292:
 1028               	.LBB293:
 360:../../protocol/lufa/LUFA-120730/LUFA/Drivers/USB/Core/AVR8/../AVR8/../AVR8/Endpoint_AVR8.h **** 				return ((UEINTX & (1 << RWAL)) ? true : false);
 1029               		.loc 2 360 0
 1030 0038 8091 E800 		lds r24,232
 1031               	.LBE293:
 1032               	.LBE292:
  53:../../protocol/lufa/LUFA-120730/LUFA/Drivers/USB/Core/AVR8/Template/Template_Endpoint_RW.c **** 		if (!(Endpoint_IsReadWriteAllowed()))
 1033               		.loc 3 53 0
 1034 003c 85FD      		sbrc r24,5
 1035 003e 00C0      		rjmp .L86
 1036               	.LBB294:
 1037               	.LBB295:
 456:../../protocol/lufa/LUFA-120730/LUFA/Drivers/USB/Core/AVR8/../AVR8/../AVR8/Endpoint_AVR8.h **** 					UEINTX &= ~((1 << TXINI) | (1 << FIFOCON));
 1038               		.loc 2 456 0
 1039 0040 8091 E800 		lds r24,232
 1040 0044 8E77      		andi r24,lo8(126)
 1041 0046 8093 E800 		sts 232,r24
 1042               	.LBE295:
 1043               	.LBE294:
  61:../../protocol/lufa/LUFA-120730/LUFA/Drivers/USB/Core/AVR8/Template/Template_Endpoint_RW.c **** 			if (BytesProcessed != NULL)
 1044               		.loc 3 61 0
 1045 004a 2097      		sbiw r28,0
 1046 004c 01F0      		breq .L87
  63:../../protocol/lufa/LUFA-120730/LUFA/Drivers/USB/Core/AVR8/Template/Template_Endpoint_RW.c **** 				*BytesProcessed += BytesInTransfer;
 1047               		.loc 3 63 0
 1048 004e 8881      		ld r24,Y
 1049 0050 9981      		ldd r25,Y+1
 1050 0052 8C0D      		add r24,r12
 1051 0054 9D1D      		adc r25,r13
 1052 0056 9983      		std Y+1,r25
 1053 0058 8883      		st Y,r24
  64:../../protocol/lufa/LUFA-120730/LUFA/Drivers/USB/Core/AVR8/Template/Template_Endpoint_RW.c **** 				return ENDPOINT_RWSTREAM_IncompleteTransfer;
 1054               		.loc 3 64 0
 1055 005a 85E0      		ldi r24,lo8(5)
 1056 005c 00C0      		rjmp .L83
 1057               	.L87:
  67:../../protocol/lufa/LUFA-120730/LUFA/Drivers/USB/Core/AVR8/Template/Template_Endpoint_RW.c **** 			if ((ErrorCode = Endpoint_WaitUntilReady()))
 1058               		.loc 3 67 0
 1059 005e 0E94 0000 		call Endpoint_WaitUntilReady
 1060               	.LVL104:
 1061 0062 8823      		tst r24
 1062 0064 01F0      		breq .L85
 1063 0066 00C0      		rjmp .L83
 1064               	.LVL105:
 1065               	.L86:
 1066               	.LBB296:
  72:../../protocol/lufa/LUFA-120730/LUFA/Drivers/USB/Core/AVR8/Template/Template_Endpoint_RW.c **** 			TEMPLATE_TRANSFER_BYTE(DataStream);
 1067               		.loc 3 72 0
 1068 0068 F701      		movw r30,r14
 1069               	/* #APP */
 1070               	 ;  72 "../../protocol/lufa/LUFA-120730/LUFA/Drivers/USB/Core/AVR8/Template/Template_Endpoint_RW.c"
 1071 006a 8491      		lpm r24, Z
 1072               		
 1073               	 ;  0 "" 2
 1074               	.LVL106:
 1075               	/* #NOAPP */
 1076               	.LBE296:
 1077               	.LBB297:
 1078               	.LBB298:
 554:../../protocol/lufa/LUFA-120730/LUFA/Drivers/USB/Core/AVR8/../AVR8/../AVR8/Endpoint_AVR8.h **** 				UEDATX = Data;
 1079               		.loc 2 554 0
 1080 006c 8093 F100 		sts 241,r24
 1081               	.LBE298:
 1082               	.LBE297:
  73:../../protocol/lufa/LUFA-120730/LUFA/Drivers/USB/Core/AVR8/Template/Template_Endpoint_RW.c **** 			TEMPLATE_BUFFER_MOVE(DataStream, 1);
 1083               		.loc 3 73 0
 1084 0070 FFEF      		ldi r31,-1
 1085 0072 EF1A      		sub r14,r31
 1086 0074 FF0A      		sbc r15,r31
 1087               	.LVL107:
  74:../../protocol/lufa/LUFA-120730/LUFA/Drivers/USB/Core/AVR8/Template/Template_Endpoint_RW.c **** 			Length--;
 1088               		.loc 3 74 0
 1089 0076 0150      		subi r16,1
 1090 0078 1109      		sbc r17,__zero_reg__
 1091               	.LVL108:
  75:../../protocol/lufa/LUFA-120730/LUFA/Drivers/USB/Core/AVR8/Template/Template_Endpoint_RW.c **** 			BytesInTransfer++;
 1092               		.loc 3 75 0
 1093 007a 8FEF      		ldi r24,-1
 1094 007c C81A      		sub r12,r24
 1095 007e D80A      		sbc r13,r24
 1096               	.LVL109:
 1097 0080 00C0      		rjmp .L85
 1098               	.LVL110:
 1099               	.L93:
  79:../../protocol/lufa/LUFA-120730/LUFA/Drivers/USB/Core/AVR8/Template/Template_Endpoint_RW.c **** 	return ENDPOINT_RWSTREAM_NoError;
 1100               		.loc 3 79 0
 1101 0082 80E0      		ldi r24,0
 1102               	.LVL111:
 1103               	.L83:
 1104               	/* epilogue start */
 1105               		.loc 3 80 0
 1106 0084 DF91      		pop r29
 1107 0086 CF91      		pop r28
 1108               	.LVL112:
 1109 0088 1F91      		pop r17
 1110 008a 0F91      		pop r16
 1111               	.LVL113:
 1112 008c FF90      		pop r15
 1113 008e EF90      		pop r14
 1114               	.LVL114:
 1115 0090 DF90      		pop r13
 1116 0092 CF90      		pop r12
 1117 0094 0895      		ret
 1118               		.cfi_endproc
 1119               	.LFE90:
 1121               		.section	.text.Endpoint_Write_PStream_BE,"ax",@progbits
 1122               	.global	Endpoint_Write_PStream_BE
 1124               	Endpoint_Write_PStream_BE:
 1125               	.LFB91:
  37:../../protocol/lufa/LUFA-120730/LUFA/Drivers/USB/Core/AVR8/Template/Template_Endpoint_RW.c **** {
 1126               		.loc 3 37 0
 1127               		.cfi_startproc
 1128               	.LVL115:
 1129 0000 CF92      		push r12
 1130               	.LCFI52:
 1131               		.cfi_def_cfa_offset 3
 1132               		.cfi_offset 12, -2
 1133 0002 DF92      		push r13
 1134               	.LCFI53:
 1135               		.cfi_def_cfa_offset 4
 1136               		.cfi_offset 13, -3
 1137 0004 EF92      		push r14
 1138               	.LCFI54:
 1139               		.cfi_def_cfa_offset 5
 1140               		.cfi_offset 14, -4
 1141 0006 FF92      		push r15
 1142               	.LCFI55:
 1143               		.cfi_def_cfa_offset 6
 1144               		.cfi_offset 15, -5
 1145 0008 0F93      		push r16
 1146               	.LCFI56:
 1147               		.cfi_def_cfa_offset 7
 1148               		.cfi_offset 16, -6
 1149 000a 1F93      		push r17
 1150               	.LCFI57:
 1151               		.cfi_def_cfa_offset 8
 1152               		.cfi_offset 17, -7
 1153 000c CF93      		push r28
 1154               	.LCFI58:
 1155               		.cfi_def_cfa_offset 9
 1156               		.cfi_offset 28, -8
 1157 000e DF93      		push r29
 1158               	.LCFI59:
 1159               		.cfi_def_cfa_offset 10
 1160               		.cfi_offset 29, -9
 1161               	/* prologue: function */
 1162               	/* frame size = 0 */
 1163               	/* stack size = 8 */
 1164               	.L__stack_usage = 8
 1165 0010 6C01      		movw r12,r24
 1166 0012 8B01      		movw r16,r22
 1167 0014 7A01      		movw r14,r20
 1168               	.LVL116:
  42:../../protocol/lufa/LUFA-120730/LUFA/Drivers/USB/Core/AVR8/Template/Template_Endpoint_RW.c **** 	if ((ErrorCode = Endpoint_WaitUntilReady()))
 1169               		.loc 3 42 0
 1170 0016 0E94 0000 		call Endpoint_WaitUntilReady
 1171               	.LVL117:
 1172 001a 8111      		cpse r24,__zero_reg__
 1173 001c 00C0      		rjmp .L95
  38:../../protocol/lufa/LUFA-120730/LUFA/Drivers/USB/Core/AVR8/Template/Template_Endpoint_RW.c **** 	uint8_t* DataStream      = ((uint8_t*)Buffer + TEMPLATE_BUFFER_OFFSET(Length));
 1174               		.loc 3 38 0
 1175 001e E801      		movw r28,r16
 1176 0020 2197      		sbiw r28,1
 1177               	.LVL118:
 1178 0022 CC0D      		add r28,r12
 1179 0024 DD1D      		adc r29,r13
 1180               	.LVL119:
  45:../../protocol/lufa/LUFA-120730/LUFA/Drivers/USB/Core/AVR8/Template/Template_Endpoint_RW.c **** 	if (BytesProcessed != NULL)
 1181               		.loc 3 45 0
 1182 0026 E114      		cp r14,__zero_reg__
 1183 0028 F104      		cpc r15,__zero_reg__
 1184 002a 01F0      		breq .L96
  47:../../protocol/lufa/LUFA-120730/LUFA/Drivers/USB/Core/AVR8/Template/Template_Endpoint_RW.c **** 		Length -= *BytesProcessed;
 1185               		.loc 3 47 0
 1186 002c F701      		movw r30,r14
 1187 002e 8081      		ld r24,Z
 1188 0030 9181      		ldd r25,Z+1
 1189               	.LVL120:
 1190 0032 081B      		sub r16,r24
 1191 0034 190B      		sbc r17,r25
 1192               	.LVL121:
  48:../../protocol/lufa/LUFA-120730/LUFA/Drivers/USB/Core/AVR8/Template/Template_Endpoint_RW.c **** 		TEMPLATE_BUFFER_MOVE(DataStream, *BytesProcessed);
 1193               		.loc 3 48 0
 1194 0036 C81B      		sub r28,r24
 1195 0038 D90B      		sbc r29,r25
 1196               	.LVL122:
 1197               	.L96:
  37:../../protocol/lufa/LUFA-120730/LUFA/Drivers/USB/Core/AVR8/Template/Template_Endpoint_RW.c **** {
 1198               		.loc 3 37 0 discriminator 1
 1199 003a C12C      		mov r12,__zero_reg__
 1200 003c D12C      		mov r13,__zero_reg__
 1201               	.LVL123:
 1202               	.L97:
  51:../../protocol/lufa/LUFA-120730/LUFA/Drivers/USB/Core/AVR8/Template/Template_Endpoint_RW.c **** 	while (Length)
 1203               		.loc 3 51 0 discriminator 1
 1204 003e 0115      		cp r16,__zero_reg__
 1205 0040 1105      		cpc r17,__zero_reg__
 1206 0042 01F0      		breq .L107
 1207               	.LBB299:
 1208               	.LBB300:
 360:../../protocol/lufa/LUFA-120730/LUFA/Drivers/USB/Core/AVR8/../AVR8/../AVR8/Endpoint_AVR8.h **** 				return ((UEINTX & (1 << RWAL)) ? true : false);
 1209               		.loc 2 360 0
 1210 0044 8091 E800 		lds r24,232
 1211               	.LBE300:
 1212               	.LBE299:
  53:../../protocol/lufa/LUFA-120730/LUFA/Drivers/USB/Core/AVR8/Template/Template_Endpoint_RW.c **** 		if (!(Endpoint_IsReadWriteAllowed()))
 1213               		.loc 3 53 0
 1214 0048 85FD      		sbrc r24,5
 1215 004a 00C0      		rjmp .L98
 1216               	.LBB301:
 1217               	.LBB302:
 456:../../protocol/lufa/LUFA-120730/LUFA/Drivers/USB/Core/AVR8/../AVR8/../AVR8/Endpoint_AVR8.h **** 					UEINTX &= ~((1 << TXINI) | (1 << FIFOCON));
 1218               		.loc 2 456 0
 1219 004c 8091 E800 		lds r24,232
 1220 0050 8E77      		andi r24,lo8(126)
 1221 0052 8093 E800 		sts 232,r24
 1222               	.LBE302:
 1223               	.LBE301:
  61:../../protocol/lufa/LUFA-120730/LUFA/Drivers/USB/Core/AVR8/Template/Template_Endpoint_RW.c **** 			if (BytesProcessed != NULL)
 1224               		.loc 3 61 0
 1225 0056 E114      		cp r14,__zero_reg__
 1226 0058 F104      		cpc r15,__zero_reg__
 1227 005a 01F0      		breq .L99
  63:../../protocol/lufa/LUFA-120730/LUFA/Drivers/USB/Core/AVR8/Template/Template_Endpoint_RW.c **** 				*BytesProcessed += BytesInTransfer;
 1228               		.loc 3 63 0
 1229 005c F701      		movw r30,r14
 1230 005e 8081      		ld r24,Z
 1231 0060 9181      		ldd r25,Z+1
 1232 0062 8C0D      		add r24,r12
 1233 0064 9D1D      		adc r25,r13
 1234 0066 9183      		std Z+1,r25
 1235 0068 8083      		st Z,r24
  64:../../protocol/lufa/LUFA-120730/LUFA/Drivers/USB/Core/AVR8/Template/Template_Endpoint_RW.c **** 				return ENDPOINT_RWSTREAM_IncompleteTransfer;
 1236               		.loc 3 64 0
 1237 006a 85E0      		ldi r24,lo8(5)
 1238 006c 00C0      		rjmp .L95
 1239               	.L99:
  67:../../protocol/lufa/LUFA-120730/LUFA/Drivers/USB/Core/AVR8/Template/Template_Endpoint_RW.c **** 			if ((ErrorCode = Endpoint_WaitUntilReady()))
 1240               		.loc 3 67 0
 1241 006e 0E94 0000 		call Endpoint_WaitUntilReady
 1242               	.LVL124:
 1243 0072 8823      		tst r24
 1244 0074 01F0      		breq .L97
 1245 0076 00C0      		rjmp .L95
 1246               	.LVL125:
 1247               	.L98:
 1248               	.LBB303:
  72:../../protocol/lufa/LUFA-120730/LUFA/Drivers/USB/Core/AVR8/Template/Template_Endpoint_RW.c **** 			TEMPLATE_TRANSFER_BYTE(DataStream);
 1249               		.loc 3 72 0
 1250 0078 FE01      		movw r30,r28
 1251               	/* #APP */
 1252               	 ;  72 "../../protocol/lufa/LUFA-120730/LUFA/Drivers/USB/Core/AVR8/Template/Template_Endpoint_RW.c"
 1253 007a 8491      		lpm r24, Z
 1254               		
 1255               	 ;  0 "" 2
 1256               	.LVL126:
 1257               	/* #NOAPP */
 1258               	.LBE303:
 1259               	.LBB304:
 1260               	.LBB305:
 554:../../protocol/lufa/LUFA-120730/LUFA/Drivers/USB/Core/AVR8/../AVR8/../AVR8/Endpoint_AVR8.h **** 				UEDATX = Data;
 1261               		.loc 2 554 0
 1262 007c 8093 F100 		sts 241,r24
 1263               	.LBE305:
 1264               	.LBE304:
  73:../../protocol/lufa/LUFA-120730/LUFA/Drivers/USB/Core/AVR8/Template/Template_Endpoint_RW.c **** 			TEMPLATE_BUFFER_MOVE(DataStream, 1);
 1265               		.loc 3 73 0
 1266 0080 2197      		sbiw r28,1
 1267               	.LVL127:
  74:../../protocol/lufa/LUFA-120730/LUFA/Drivers/USB/Core/AVR8/Template/Template_Endpoint_RW.c **** 			Length--;
 1268               		.loc 3 74 0
 1269 0082 0150      		subi r16,1
 1270 0084 1109      		sbc r17,__zero_reg__
 1271               	.LVL128:
  75:../../protocol/lufa/LUFA-120730/LUFA/Drivers/USB/Core/AVR8/Template/Template_Endpoint_RW.c **** 			BytesInTransfer++;
 1272               		.loc 3 75 0
 1273 0086 FFEF      		ldi r31,-1
 1274 0088 CF1A      		sub r12,r31
 1275 008a DF0A      		sbc r13,r31
 1276               	.LVL129:
 1277 008c 00C0      		rjmp .L97
 1278               	.LVL130:
 1279               	.L107:
  79:../../protocol/lufa/LUFA-120730/LUFA/Drivers/USB/Core/AVR8/Template/Template_Endpoint_RW.c **** 	return ENDPOINT_RWSTREAM_NoError;
 1280               		.loc 3 79 0
 1281 008e 80E0      		ldi r24,0
 1282               	.LVL131:
 1283               	.L95:
 1284               	/* epilogue start */
 1285               		.loc 3 80 0
 1286 0090 DF91      		pop r29
 1287 0092 CF91      		pop r28
 1288 0094 1F91      		pop r17
 1289 0096 0F91      		pop r16
 1290               	.LVL132:
 1291 0098 FF90      		pop r15
 1292 009a EF90      		pop r14
 1293               	.LVL133:
 1294 009c DF90      		pop r13
 1295 009e CF90      		pop r12
 1296 00a0 0895      		ret
 1297               		.cfi_endproc
 1298               	.LFE91:
 1300               		.section	.text.Endpoint_Write_EStream_LE,"ax",@progbits
 1301               	.global	Endpoint_Write_EStream_LE
 1303               	Endpoint_Write_EStream_LE:
 1304               	.LFB92:
  37:../../protocol/lufa/LUFA-120730/LUFA/Drivers/USB/Core/AVR8/Template/Template_Endpoint_RW.c **** {
 1305               		.loc 3 37 0
 1306               		.cfi_startproc
 1307               	.LVL134:
 1308 0000 CF92      		push r12
 1309               	.LCFI60:
 1310               		.cfi_def_cfa_offset 3
 1311               		.cfi_offset 12, -2
 1312 0002 DF92      		push r13
 1313               	.LCFI61:
 1314               		.cfi_def_cfa_offset 4
 1315               		.cfi_offset 13, -3
 1316 0004 EF92      		push r14
 1317               	.LCFI62:
 1318               		.cfi_def_cfa_offset 5
 1319               		.cfi_offset 14, -4
 1320 0006 FF92      		push r15
 1321               	.LCFI63:
 1322               		.cfi_def_cfa_offset 6
 1323               		.cfi_offset 15, -5
 1324 0008 0F93      		push r16
 1325               	.LCFI64:
 1326               		.cfi_def_cfa_offset 7
 1327               		.cfi_offset 16, -6
 1328 000a 1F93      		push r17
 1329               	.LCFI65:
 1330               		.cfi_def_cfa_offset 8
 1331               		.cfi_offset 17, -7
 1332 000c CF93      		push r28
 1333               	.LCFI66:
 1334               		.cfi_def_cfa_offset 9
 1335               		.cfi_offset 28, -8
 1336 000e DF93      		push r29
 1337               	.LCFI67:
 1338               		.cfi_def_cfa_offset 10
 1339               		.cfi_offset 29, -9
 1340               	/* prologue: function */
 1341               	/* frame size = 0 */
 1342               	/* stack size = 8 */
 1343               	.L__stack_usage = 8
 1344 0010 7C01      		movw r14,r24
 1345 0012 8B01      		movw r16,r22
 1346 0014 EA01      		movw r28,r20
 1347               	.LVL135:
  42:../../protocol/lufa/LUFA-120730/LUFA/Drivers/USB/Core/AVR8/Template/Template_Endpoint_RW.c **** 	if ((ErrorCode = Endpoint_WaitUntilReady()))
 1348               		.loc 3 42 0
 1349 0016 0E94 0000 		call Endpoint_WaitUntilReady
 1350               	.LVL136:
 1351 001a 8111      		cpse r24,__zero_reg__
 1352 001c 00C0      		rjmp .L109
  45:../../protocol/lufa/LUFA-120730/LUFA/Drivers/USB/Core/AVR8/Template/Template_Endpoint_RW.c **** 	if (BytesProcessed != NULL)
 1353               		.loc 3 45 0
 1354 001e 2097      		sbiw r28,0
 1355 0020 01F0      		breq .L110
  47:../../protocol/lufa/LUFA-120730/LUFA/Drivers/USB/Core/AVR8/Template/Template_Endpoint_RW.c **** 		Length -= *BytesProcessed;
 1356               		.loc 3 47 0
 1357 0022 8881      		ld r24,Y
 1358 0024 9981      		ldd r25,Y+1
 1359               	.LVL137:
 1360 0026 081B      		sub r16,r24
 1361 0028 190B      		sbc r17,r25
 1362               	.LVL138:
  48:../../protocol/lufa/LUFA-120730/LUFA/Drivers/USB/Core/AVR8/Template/Template_Endpoint_RW.c **** 		TEMPLATE_BUFFER_MOVE(DataStream, *BytesProcessed);
 1363               		.loc 3 48 0
 1364 002a E80E      		add r14,r24
 1365 002c F91E      		adc r15,r25
 1366               	.LVL139:
 1367               	.L110:
  38:../../protocol/lufa/LUFA-120730/LUFA/Drivers/USB/Core/AVR8/Template/Template_Endpoint_RW.c **** 	uint8_t* DataStream      = ((uint8_t*)Buffer + TEMPLATE_BUFFER_OFFSET(Length));
 1368               		.loc 3 38 0 discriminator 1
 1369 002e C12C      		mov r12,__zero_reg__
 1370 0030 D12C      		mov r13,__zero_reg__
 1371               	.LVL140:
 1372               	.L111:
  51:../../protocol/lufa/LUFA-120730/LUFA/Drivers/USB/Core/AVR8/Template/Template_Endpoint_RW.c **** 	while (Length)
 1373               		.loc 3 51 0 discriminator 1
 1374 0032 0115      		cp r16,__zero_reg__
 1375 0034 1105      		cpc r17,__zero_reg__
 1376 0036 01F0      		breq .L119
 1377               	.LBB306:
 1378               	.LBB307:
 360:../../protocol/lufa/LUFA-120730/LUFA/Drivers/USB/Core/AVR8/../AVR8/../AVR8/Endpoint_AVR8.h **** 				return ((UEINTX & (1 << RWAL)) ? true : false);
 1379               		.loc 2 360 0
 1380 0038 8091 E800 		lds r24,232
 1381               	.LBE307:
 1382               	.LBE306:
  53:../../protocol/lufa/LUFA-120730/LUFA/Drivers/USB/Core/AVR8/Template/Template_Endpoint_RW.c **** 		if (!(Endpoint_IsReadWriteAllowed()))
 1383               		.loc 3 53 0
 1384 003c 85FD      		sbrc r24,5
 1385 003e 00C0      		rjmp .L112
 1386               	.LBB308:
 1387               	.LBB309:
 456:../../protocol/lufa/LUFA-120730/LUFA/Drivers/USB/Core/AVR8/../AVR8/../AVR8/Endpoint_AVR8.h **** 					UEINTX &= ~((1 << TXINI) | (1 << FIFOCON));
 1388               		.loc 2 456 0
 1389 0040 8091 E800 		lds r24,232
 1390 0044 8E77      		andi r24,lo8(126)
 1391 0046 8093 E800 		sts 232,r24
 1392               	.LBE309:
 1393               	.LBE308:
  61:../../protocol/lufa/LUFA-120730/LUFA/Drivers/USB/Core/AVR8/Template/Template_Endpoint_RW.c **** 			if (BytesProcessed != NULL)
 1394               		.loc 3 61 0
 1395 004a 2097      		sbiw r28,0
 1396 004c 01F0      		breq .L113
  63:../../protocol/lufa/LUFA-120730/LUFA/Drivers/USB/Core/AVR8/Template/Template_Endpoint_RW.c **** 				*BytesProcessed += BytesInTransfer;
 1397               		.loc 3 63 0
 1398 004e 8881      		ld r24,Y
 1399 0050 9981      		ldd r25,Y+1
 1400 0052 8C0D      		add r24,r12
 1401 0054 9D1D      		adc r25,r13
 1402 0056 9983      		std Y+1,r25
 1403 0058 8883      		st Y,r24
  64:../../protocol/lufa/LUFA-120730/LUFA/Drivers/USB/Core/AVR8/Template/Template_Endpoint_RW.c **** 				return ENDPOINT_RWSTREAM_IncompleteTransfer;
 1404               		.loc 3 64 0
 1405 005a 85E0      		ldi r24,lo8(5)
 1406 005c 00C0      		rjmp .L109
 1407               	.L113:
  67:../../protocol/lufa/LUFA-120730/LUFA/Drivers/USB/Core/AVR8/Template/Template_Endpoint_RW.c **** 			if ((ErrorCode = Endpoint_WaitUntilReady()))
 1408               		.loc 3 67 0
 1409 005e 0E94 0000 		call Endpoint_WaitUntilReady
 1410               	.LVL141:
 1411 0062 8823      		tst r24
 1412 0064 01F0      		breq .L111
 1413 0066 00C0      		rjmp .L109
 1414               	.LVL142:
 1415               	.L112:
  72:../../protocol/lufa/LUFA-120730/LUFA/Drivers/USB/Core/AVR8/Template/Template_Endpoint_RW.c **** 			TEMPLATE_TRANSFER_BYTE(DataStream);
 1416               		.loc 3 72 0
 1417 0068 C701      		movw r24,r14
 1418 006a 0E94 0000 		call __eerd_byte_m32u4
 1419               	.LVL143:
 1420               	.LBB310:
 1421               	.LBB311:
 554:../../protocol/lufa/LUFA-120730/LUFA/Drivers/USB/Core/AVR8/../AVR8/../AVR8/Endpoint_AVR8.h **** 				UEDATX = Data;
 1422               		.loc 2 554 0
 1423 006e 8093 F100 		sts 241,r24
 1424               	.LBE311:
 1425               	.LBE310:
  73:../../protocol/lufa/LUFA-120730/LUFA/Drivers/USB/Core/AVR8/Template/Template_Endpoint_RW.c **** 			TEMPLATE_BUFFER_MOVE(DataStream, 1);
 1426               		.loc 3 73 0
 1427 0072 8FEF      		ldi r24,-1
 1428 0074 E81A      		sub r14,r24
 1429 0076 F80A      		sbc r15,r24
 1430               	.LVL144:
  74:../../protocol/lufa/LUFA-120730/LUFA/Drivers/USB/Core/AVR8/Template/Template_Endpoint_RW.c **** 			Length--;
 1431               		.loc 3 74 0
 1432 0078 0150      		subi r16,1
 1433 007a 1109      		sbc r17,__zero_reg__
 1434               	.LVL145:
  75:../../protocol/lufa/LUFA-120730/LUFA/Drivers/USB/Core/AVR8/Template/Template_Endpoint_RW.c **** 			BytesInTransfer++;
 1435               		.loc 3 75 0
 1436 007c 8FEF      		ldi r24,-1
 1437 007e C81A      		sub r12,r24
 1438 0080 D80A      		sbc r13,r24
 1439               	.LVL146:
 1440 0082 00C0      		rjmp .L111
 1441               	.LVL147:
 1442               	.L119:
  79:../../protocol/lufa/LUFA-120730/LUFA/Drivers/USB/Core/AVR8/Template/Template_Endpoint_RW.c **** 	return ENDPOINT_RWSTREAM_NoError;
 1443               		.loc 3 79 0
 1444 0084 80E0      		ldi r24,0
 1445               	.LVL148:
 1446               	.L109:
 1447               	/* epilogue start */
 1448               		.loc 3 80 0
 1449 0086 DF91      		pop r29
 1450 0088 CF91      		pop r28
 1451               	.LVL149:
 1452 008a 1F91      		pop r17
 1453 008c 0F91      		pop r16
 1454               	.LVL150:
 1455 008e FF90      		pop r15
 1456 0090 EF90      		pop r14
 1457               	.LVL151:
 1458 0092 DF90      		pop r13
 1459 0094 CF90      		pop r12
 1460 0096 0895      		ret
 1461               		.cfi_endproc
 1462               	.LFE92:
 1464               		.section	.text.Endpoint_Write_EStream_BE,"ax",@progbits
 1465               	.global	Endpoint_Write_EStream_BE
 1467               	Endpoint_Write_EStream_BE:
 1468               	.LFB93:
  37:../../protocol/lufa/LUFA-120730/LUFA/Drivers/USB/Core/AVR8/Template/Template_Endpoint_RW.c **** {
 1469               		.loc 3 37 0
 1470               		.cfi_startproc
 1471               	.LVL152:
 1472 0000 CF92      		push r12
 1473               	.LCFI68:
 1474               		.cfi_def_cfa_offset 3
 1475               		.cfi_offset 12, -2
 1476 0002 DF92      		push r13
 1477               	.LCFI69:
 1478               		.cfi_def_cfa_offset 4
 1479               		.cfi_offset 13, -3
 1480 0004 EF92      		push r14
 1481               	.LCFI70:
 1482               		.cfi_def_cfa_offset 5
 1483               		.cfi_offset 14, -4
 1484 0006 FF92      		push r15
 1485               	.LCFI71:
 1486               		.cfi_def_cfa_offset 6
 1487               		.cfi_offset 15, -5
 1488 0008 0F93      		push r16
 1489               	.LCFI72:
 1490               		.cfi_def_cfa_offset 7
 1491               		.cfi_offset 16, -6
 1492 000a 1F93      		push r17
 1493               	.LCFI73:
 1494               		.cfi_def_cfa_offset 8
 1495               		.cfi_offset 17, -7
 1496 000c CF93      		push r28
 1497               	.LCFI74:
 1498               		.cfi_def_cfa_offset 9
 1499               		.cfi_offset 28, -8
 1500 000e DF93      		push r29
 1501               	.LCFI75:
 1502               		.cfi_def_cfa_offset 10
 1503               		.cfi_offset 29, -9
 1504               	/* prologue: function */
 1505               	/* frame size = 0 */
 1506               	/* stack size = 8 */
 1507               	.L__stack_usage = 8
 1508 0010 6C01      		movw r12,r24
 1509 0012 8B01      		movw r16,r22
 1510 0014 7A01      		movw r14,r20
 1511               	.LVL153:
  42:../../protocol/lufa/LUFA-120730/LUFA/Drivers/USB/Core/AVR8/Template/Template_Endpoint_RW.c **** 	if ((ErrorCode = Endpoint_WaitUntilReady()))
 1512               		.loc 3 42 0
 1513 0016 0E94 0000 		call Endpoint_WaitUntilReady
 1514               	.LVL154:
 1515 001a 8111      		cpse r24,__zero_reg__
 1516 001c 00C0      		rjmp .L121
  38:../../protocol/lufa/LUFA-120730/LUFA/Drivers/USB/Core/AVR8/Template/Template_Endpoint_RW.c **** 	uint8_t* DataStream      = ((uint8_t*)Buffer + TEMPLATE_BUFFER_OFFSET(Length));
 1517               		.loc 3 38 0
 1518 001e E801      		movw r28,r16
 1519 0020 2197      		sbiw r28,1
 1520               	.LVL155:
 1521 0022 CC0D      		add r28,r12
 1522 0024 DD1D      		adc r29,r13
 1523               	.LVL156:
  45:../../protocol/lufa/LUFA-120730/LUFA/Drivers/USB/Core/AVR8/Template/Template_Endpoint_RW.c **** 	if (BytesProcessed != NULL)
 1524               		.loc 3 45 0
 1525 0026 E114      		cp r14,__zero_reg__
 1526 0028 F104      		cpc r15,__zero_reg__
 1527 002a 01F0      		breq .L122
  47:../../protocol/lufa/LUFA-120730/LUFA/Drivers/USB/Core/AVR8/Template/Template_Endpoint_RW.c **** 		Length -= *BytesProcessed;
 1528               		.loc 3 47 0
 1529 002c F701      		movw r30,r14
 1530 002e 8081      		ld r24,Z
 1531 0030 9181      		ldd r25,Z+1
 1532               	.LVL157:
 1533 0032 081B      		sub r16,r24
 1534 0034 190B      		sbc r17,r25
 1535               	.LVL158:
  48:../../protocol/lufa/LUFA-120730/LUFA/Drivers/USB/Core/AVR8/Template/Template_Endpoint_RW.c **** 		TEMPLATE_BUFFER_MOVE(DataStream, *BytesProcessed);
 1536               		.loc 3 48 0
 1537 0036 C81B      		sub r28,r24
 1538 0038 D90B      		sbc r29,r25
 1539               	.LVL159:
 1540               	.L122:
  37:../../protocol/lufa/LUFA-120730/LUFA/Drivers/USB/Core/AVR8/Template/Template_Endpoint_RW.c **** {
 1541               		.loc 3 37 0 discriminator 1
 1542 003a C12C      		mov r12,__zero_reg__
 1543 003c D12C      		mov r13,__zero_reg__
 1544               	.LVL160:
 1545               	.L123:
  51:../../protocol/lufa/LUFA-120730/LUFA/Drivers/USB/Core/AVR8/Template/Template_Endpoint_RW.c **** 	while (Length)
 1546               		.loc 3 51 0 discriminator 1
 1547 003e 0115      		cp r16,__zero_reg__
 1548 0040 1105      		cpc r17,__zero_reg__
 1549 0042 01F0      		breq .L133
 1550               	.LBB312:
 1551               	.LBB313:
 360:../../protocol/lufa/LUFA-120730/LUFA/Drivers/USB/Core/AVR8/../AVR8/../AVR8/Endpoint_AVR8.h **** 				return ((UEINTX & (1 << RWAL)) ? true : false);
 1552               		.loc 2 360 0
 1553 0044 8091 E800 		lds r24,232
 1554               	.LBE313:
 1555               	.LBE312:
  53:../../protocol/lufa/LUFA-120730/LUFA/Drivers/USB/Core/AVR8/Template/Template_Endpoint_RW.c **** 		if (!(Endpoint_IsReadWriteAllowed()))
 1556               		.loc 3 53 0
 1557 0048 85FD      		sbrc r24,5
 1558 004a 00C0      		rjmp .L124
 1559               	.LBB314:
 1560               	.LBB315:
 456:../../protocol/lufa/LUFA-120730/LUFA/Drivers/USB/Core/AVR8/../AVR8/../AVR8/Endpoint_AVR8.h **** 					UEINTX &= ~((1 << TXINI) | (1 << FIFOCON));
 1561               		.loc 2 456 0
 1562 004c 8091 E800 		lds r24,232
 1563 0050 8E77      		andi r24,lo8(126)
 1564 0052 8093 E800 		sts 232,r24
 1565               	.LBE315:
 1566               	.LBE314:
  61:../../protocol/lufa/LUFA-120730/LUFA/Drivers/USB/Core/AVR8/Template/Template_Endpoint_RW.c **** 			if (BytesProcessed != NULL)
 1567               		.loc 3 61 0
 1568 0056 E114      		cp r14,__zero_reg__
 1569 0058 F104      		cpc r15,__zero_reg__
 1570 005a 01F0      		breq .L125
  63:../../protocol/lufa/LUFA-120730/LUFA/Drivers/USB/Core/AVR8/Template/Template_Endpoint_RW.c **** 				*BytesProcessed += BytesInTransfer;
 1571               		.loc 3 63 0
 1572 005c F701      		movw r30,r14
 1573 005e 8081      		ld r24,Z
 1574 0060 9181      		ldd r25,Z+1
 1575 0062 8C0D      		add r24,r12
 1576 0064 9D1D      		adc r25,r13
 1577 0066 9183      		std Z+1,r25
 1578 0068 8083      		st Z,r24
  64:../../protocol/lufa/LUFA-120730/LUFA/Drivers/USB/Core/AVR8/Template/Template_Endpoint_RW.c **** 				return ENDPOINT_RWSTREAM_IncompleteTransfer;
 1579               		.loc 3 64 0
 1580 006a 85E0      		ldi r24,lo8(5)
 1581 006c 00C0      		rjmp .L121
 1582               	.L125:
  67:../../protocol/lufa/LUFA-120730/LUFA/Drivers/USB/Core/AVR8/Template/Template_Endpoint_RW.c **** 			if ((ErrorCode = Endpoint_WaitUntilReady()))
 1583               		.loc 3 67 0
 1584 006e 0E94 0000 		call Endpoint_WaitUntilReady
 1585               	.LVL161:
 1586 0072 8823      		tst r24
 1587 0074 01F0      		breq .L123
 1588 0076 00C0      		rjmp .L121
 1589               	.LVL162:
 1590               	.L124:
  72:../../protocol/lufa/LUFA-120730/LUFA/Drivers/USB/Core/AVR8/Template/Template_Endpoint_RW.c **** 			TEMPLATE_TRANSFER_BYTE(DataStream);
 1591               		.loc 3 72 0
 1592 0078 CE01      		movw r24,r28
 1593 007a 0E94 0000 		call __eerd_byte_m32u4
 1594               	.LVL163:
 1595               	.LBB316:
 1596               	.LBB317:
 554:../../protocol/lufa/LUFA-120730/LUFA/Drivers/USB/Core/AVR8/../AVR8/../AVR8/Endpoint_AVR8.h **** 				UEDATX = Data;
 1597               		.loc 2 554 0
 1598 007e 8093 F100 		sts 241,r24
 1599               	.LBE317:
 1600               	.LBE316:
  73:../../protocol/lufa/LUFA-120730/LUFA/Drivers/USB/Core/AVR8/Template/Template_Endpoint_RW.c **** 			TEMPLATE_BUFFER_MOVE(DataStream, 1);
 1601               		.loc 3 73 0
 1602 0082 2197      		sbiw r28,1
 1603               	.LVL164:
  74:../../protocol/lufa/LUFA-120730/LUFA/Drivers/USB/Core/AVR8/Template/Template_Endpoint_RW.c **** 			Length--;
 1604               		.loc 3 74 0
 1605 0084 0150      		subi r16,1
 1606 0086 1109      		sbc r17,__zero_reg__
 1607               	.LVL165:
  75:../../protocol/lufa/LUFA-120730/LUFA/Drivers/USB/Core/AVR8/Template/Template_Endpoint_RW.c **** 			BytesInTransfer++;
 1608               		.loc 3 75 0
 1609 0088 FFEF      		ldi r31,-1
 1610 008a CF1A      		sub r12,r31
 1611 008c DF0A      		sbc r13,r31
 1612               	.LVL166:
 1613 008e 00C0      		rjmp .L123
 1614               	.LVL167:
 1615               	.L133:
  79:../../protocol/lufa/LUFA-120730/LUFA/Drivers/USB/Core/AVR8/Template/Template_Endpoint_RW.c **** 	return ENDPOINT_RWSTREAM_NoError;
 1616               		.loc 3 79 0
 1617 0090 80E0      		ldi r24,0
 1618               	.LVL168:
 1619               	.L121:
 1620               	/* epilogue start */
 1621               		.loc 3 80 0
 1622 0092 DF91      		pop r29
 1623 0094 CF91      		pop r28
 1624 0096 1F91      		pop r17
 1625 0098 0F91      		pop r16
 1626               	.LVL169:
 1627 009a FF90      		pop r15
 1628 009c EF90      		pop r14
 1629               	.LVL170:
 1630 009e DF90      		pop r13
 1631 00a0 CF90      		pop r12
 1632 00a2 0895      		ret
 1633               		.cfi_endproc
 1634               	.LFE93:
 1636               		.section	.text.Endpoint_Read_EStream_LE,"ax",@progbits
 1637               	.global	Endpoint_Read_EStream_LE
 1639               	Endpoint_Read_EStream_LE:
 1640               	.LFB94:
  37:../../protocol/lufa/LUFA-120730/LUFA/Drivers/USB/Core/AVR8/Template/Template_Endpoint_RW.c **** {
 1641               		.loc 3 37 0
 1642               		.cfi_startproc
 1643               	.LVL171:
 1644 0000 CF92      		push r12
 1645               	.LCFI76:
 1646               		.cfi_def_cfa_offset 3
 1647               		.cfi_offset 12, -2
 1648 0002 DF92      		push r13
 1649               	.LCFI77:
 1650               		.cfi_def_cfa_offset 4
 1651               		.cfi_offset 13, -3
 1652 0004 EF92      		push r14
 1653               	.LCFI78:
 1654               		.cfi_def_cfa_offset 5
 1655               		.cfi_offset 14, -4
 1656 0006 FF92      		push r15
 1657               	.LCFI79:
 1658               		.cfi_def_cfa_offset 6
 1659               		.cfi_offset 15, -5
 1660 0008 0F93      		push r16
 1661               	.LCFI80:
 1662               		.cfi_def_cfa_offset 7
 1663               		.cfi_offset 16, -6
 1664 000a 1F93      		push r17
 1665               	.LCFI81:
 1666               		.cfi_def_cfa_offset 8
 1667               		.cfi_offset 17, -7
 1668 000c CF93      		push r28
 1669               	.LCFI82:
 1670               		.cfi_def_cfa_offset 9
 1671               		.cfi_offset 28, -8
 1672 000e DF93      		push r29
 1673               	.LCFI83:
 1674               		.cfi_def_cfa_offset 10
 1675               		.cfi_offset 29, -9
 1676               	/* prologue: function */
 1677               	/* frame size = 0 */
 1678               	/* stack size = 8 */
 1679               	.L__stack_usage = 8
 1680 0010 7C01      		movw r14,r24
 1681 0012 8B01      		movw r16,r22
 1682 0014 EA01      		movw r28,r20
 1683               	.LVL172:
  42:../../protocol/lufa/LUFA-120730/LUFA/Drivers/USB/Core/AVR8/Template/Template_Endpoint_RW.c **** 	if ((ErrorCode = Endpoint_WaitUntilReady()))
 1684               		.loc 3 42 0
 1685 0016 0E94 0000 		call Endpoint_WaitUntilReady
 1686               	.LVL173:
 1687 001a 8111      		cpse r24,__zero_reg__
 1688 001c 00C0      		rjmp .L135
  45:../../protocol/lufa/LUFA-120730/LUFA/Drivers/USB/Core/AVR8/Template/Template_Endpoint_RW.c **** 	if (BytesProcessed != NULL)
 1689               		.loc 3 45 0
 1690 001e 2097      		sbiw r28,0
 1691 0020 01F0      		breq .L136
  47:../../protocol/lufa/LUFA-120730/LUFA/Drivers/USB/Core/AVR8/Template/Template_Endpoint_RW.c **** 		Length -= *BytesProcessed;
 1692               		.loc 3 47 0
 1693 0022 8881      		ld r24,Y
 1694 0024 9981      		ldd r25,Y+1
 1695               	.LVL174:
 1696 0026 081B      		sub r16,r24
 1697 0028 190B      		sbc r17,r25
 1698               	.LVL175:
  48:../../protocol/lufa/LUFA-120730/LUFA/Drivers/USB/Core/AVR8/Template/Template_Endpoint_RW.c **** 		TEMPLATE_BUFFER_MOVE(DataStream, *BytesProcessed);
 1699               		.loc 3 48 0
 1700 002a E80E      		add r14,r24
 1701 002c F91E      		adc r15,r25
 1702               	.LVL176:
 1703               	.L136:
  38:../../protocol/lufa/LUFA-120730/LUFA/Drivers/USB/Core/AVR8/Template/Template_Endpoint_RW.c **** 	uint8_t* DataStream      = ((uint8_t*)Buffer + TEMPLATE_BUFFER_OFFSET(Length));
 1704               		.loc 3 38 0 discriminator 1
 1705 002e C12C      		mov r12,__zero_reg__
 1706 0030 D12C      		mov r13,__zero_reg__
 1707               	.LVL177:
 1708               	.L137:
  51:../../protocol/lufa/LUFA-120730/LUFA/Drivers/USB/Core/AVR8/Template/Template_Endpoint_RW.c **** 	while (Length)
 1709               		.loc 3 51 0 discriminator 1
 1710 0032 0115      		cp r16,__zero_reg__
 1711 0034 1105      		cpc r17,__zero_reg__
 1712 0036 01F0      		breq .L145
 1713               	.LBB318:
 1714               	.LBB319:
 360:../../protocol/lufa/LUFA-120730/LUFA/Drivers/USB/Core/AVR8/../AVR8/../AVR8/Endpoint_AVR8.h **** 				return ((UEINTX & (1 << RWAL)) ? true : false);
 1715               		.loc 2 360 0
 1716 0038 8091 E800 		lds r24,232
 1717               	.LBE319:
 1718               	.LBE318:
  53:../../protocol/lufa/LUFA-120730/LUFA/Drivers/USB/Core/AVR8/Template/Template_Endpoint_RW.c **** 		if (!(Endpoint_IsReadWriteAllowed()))
 1719               		.loc 3 53 0
 1720 003c 85FD      		sbrc r24,5
 1721 003e 00C0      		rjmp .L138
 1722               	.LBB320:
 1723               	.LBB321:
 471:../../protocol/lufa/LUFA-120730/LUFA/Drivers/USB/Core/AVR8/../AVR8/../AVR8/Endpoint_AVR8.h **** 					UEINTX &= ~((1 << RXOUTI) | (1 << FIFOCON));
 1724               		.loc 2 471 0
 1725 0040 8091 E800 		lds r24,232
 1726 0044 8B77      		andi r24,lo8(123)
 1727 0046 8093 E800 		sts 232,r24
 1728               	.LBE321:
 1729               	.LBE320:
  61:../../protocol/lufa/LUFA-120730/LUFA/Drivers/USB/Core/AVR8/Template/Template_Endpoint_RW.c **** 			if (BytesProcessed != NULL)
 1730               		.loc 3 61 0
 1731 004a 2097      		sbiw r28,0
 1732 004c 01F0      		breq .L139
  63:../../protocol/lufa/LUFA-120730/LUFA/Drivers/USB/Core/AVR8/Template/Template_Endpoint_RW.c **** 				*BytesProcessed += BytesInTransfer;
 1733               		.loc 3 63 0
 1734 004e 8881      		ld r24,Y
 1735 0050 9981      		ldd r25,Y+1
 1736 0052 8C0D      		add r24,r12
 1737 0054 9D1D      		adc r25,r13
 1738 0056 9983      		std Y+1,r25
 1739 0058 8883      		st Y,r24
  64:../../protocol/lufa/LUFA-120730/LUFA/Drivers/USB/Core/AVR8/Template/Template_Endpoint_RW.c **** 				return ENDPOINT_RWSTREAM_IncompleteTransfer;
 1740               		.loc 3 64 0
 1741 005a 85E0      		ldi r24,lo8(5)
 1742 005c 00C0      		rjmp .L135
 1743               	.L139:
  67:../../protocol/lufa/LUFA-120730/LUFA/Drivers/USB/Core/AVR8/Template/Template_Endpoint_RW.c **** 			if ((ErrorCode = Endpoint_WaitUntilReady()))
 1744               		.loc 3 67 0
 1745 005e 0E94 0000 		call Endpoint_WaitUntilReady
 1746               	.LVL178:
 1747 0062 8823      		tst r24
 1748 0064 01F0      		breq .L137
 1749 0066 00C0      		rjmp .L135
 1750               	.LVL179:
 1751               	.L138:
 1752               	.LBB322:
 1753               	.LBB323:
 542:../../protocol/lufa/LUFA-120730/LUFA/Drivers/USB/Core/AVR8/../AVR8/../AVR8/Endpoint_AVR8.h **** 				return UEDATX;
 1754               		.loc 2 542 0
 1755 0068 6091 F100 		lds r22,241
 1756               	.LBE323:
 1757               	.LBE322:
  72:../../protocol/lufa/LUFA-120730/LUFA/Drivers/USB/Core/AVR8/Template/Template_Endpoint_RW.c **** 			TEMPLATE_TRANSFER_BYTE(DataStream);
 1758               		.loc 3 72 0
 1759 006c C701      		movw r24,r14
 1760 006e 0E94 0000 		call __eeupd_byte_m32u4
 1761               	.LVL180:
  73:../../protocol/lufa/LUFA-120730/LUFA/Drivers/USB/Core/AVR8/Template/Template_Endpoint_RW.c **** 			TEMPLATE_BUFFER_MOVE(DataStream, 1);
 1762               		.loc 3 73 0
 1763 0072 8FEF      		ldi r24,-1
 1764 0074 E81A      		sub r14,r24
 1765 0076 F80A      		sbc r15,r24
 1766               	.LVL181:
  74:../../protocol/lufa/LUFA-120730/LUFA/Drivers/USB/Core/AVR8/Template/Template_Endpoint_RW.c **** 			Length--;
 1767               		.loc 3 74 0
 1768 0078 0150      		subi r16,1
 1769 007a 1109      		sbc r17,__zero_reg__
 1770               	.LVL182:
  75:../../protocol/lufa/LUFA-120730/LUFA/Drivers/USB/Core/AVR8/Template/Template_Endpoint_RW.c **** 			BytesInTransfer++;
 1771               		.loc 3 75 0
 1772 007c 8FEF      		ldi r24,-1
 1773 007e C81A      		sub r12,r24
 1774 0080 D80A      		sbc r13,r24
 1775               	.LVL183:
 1776 0082 00C0      		rjmp .L137
 1777               	.L145:
  79:../../protocol/lufa/LUFA-120730/LUFA/Drivers/USB/Core/AVR8/Template/Template_Endpoint_RW.c **** 	return ENDPOINT_RWSTREAM_NoError;
 1778               		.loc 3 79 0
 1779 0084 80E0      		ldi r24,0
 1780               	.LVL184:
 1781               	.L135:
 1782               	/* epilogue start */
 1783               		.loc 3 80 0
 1784 0086 DF91      		pop r29
 1785 0088 CF91      		pop r28
 1786               	.LVL185:
 1787 008a 1F91      		pop r17
 1788 008c 0F91      		pop r16
 1789               	.LVL186:
 1790 008e FF90      		pop r15
 1791 0090 EF90      		pop r14
 1792               	.LVL187:
 1793 0092 DF90      		pop r13
 1794 0094 CF90      		pop r12
 1795 0096 0895      		ret
 1796               		.cfi_endproc
 1797               	.LFE94:
 1799               		.section	.text.Endpoint_Read_EStream_BE,"ax",@progbits
 1800               	.global	Endpoint_Read_EStream_BE
 1802               	Endpoint_Read_EStream_BE:
 1803               	.LFB95:
  37:../../protocol/lufa/LUFA-120730/LUFA/Drivers/USB/Core/AVR8/Template/Template_Endpoint_RW.c **** {
 1804               		.loc 3 37 0
 1805               		.cfi_startproc
 1806               	.LVL188:
 1807 0000 CF92      		push r12
 1808               	.LCFI84:
 1809               		.cfi_def_cfa_offset 3
 1810               		.cfi_offset 12, -2
 1811 0002 DF92      		push r13
 1812               	.LCFI85:
 1813               		.cfi_def_cfa_offset 4
 1814               		.cfi_offset 13, -3
 1815 0004 EF92      		push r14
 1816               	.LCFI86:
 1817               		.cfi_def_cfa_offset 5
 1818               		.cfi_offset 14, -4
 1819 0006 FF92      		push r15
 1820               	.LCFI87:
 1821               		.cfi_def_cfa_offset 6
 1822               		.cfi_offset 15, -5
 1823 0008 0F93      		push r16
 1824               	.LCFI88:
 1825               		.cfi_def_cfa_offset 7
 1826               		.cfi_offset 16, -6
 1827 000a 1F93      		push r17
 1828               	.LCFI89:
 1829               		.cfi_def_cfa_offset 8
 1830               		.cfi_offset 17, -7
 1831 000c CF93      		push r28
 1832               	.LCFI90:
 1833               		.cfi_def_cfa_offset 9
 1834               		.cfi_offset 28, -8
 1835 000e DF93      		push r29
 1836               	.LCFI91:
 1837               		.cfi_def_cfa_offset 10
 1838               		.cfi_offset 29, -9
 1839               	/* prologue: function */
 1840               	/* frame size = 0 */
 1841               	/* stack size = 8 */
 1842               	.L__stack_usage = 8
 1843 0010 6C01      		movw r12,r24
 1844 0012 8B01      		movw r16,r22
 1845 0014 7A01      		movw r14,r20
 1846               	.LVL189:
  42:../../protocol/lufa/LUFA-120730/LUFA/Drivers/USB/Core/AVR8/Template/Template_Endpoint_RW.c **** 	if ((ErrorCode = Endpoint_WaitUntilReady()))
 1847               		.loc 3 42 0
 1848 0016 0E94 0000 		call Endpoint_WaitUntilReady
 1849               	.LVL190:
 1850 001a 8111      		cpse r24,__zero_reg__
 1851 001c 00C0      		rjmp .L147
  38:../../protocol/lufa/LUFA-120730/LUFA/Drivers/USB/Core/AVR8/Template/Template_Endpoint_RW.c **** 	uint8_t* DataStream      = ((uint8_t*)Buffer + TEMPLATE_BUFFER_OFFSET(Length));
 1852               		.loc 3 38 0
 1853 001e E801      		movw r28,r16
 1854 0020 2197      		sbiw r28,1
 1855               	.LVL191:
 1856 0022 CC0D      		add r28,r12
 1857 0024 DD1D      		adc r29,r13
 1858               	.LVL192:
  45:../../protocol/lufa/LUFA-120730/LUFA/Drivers/USB/Core/AVR8/Template/Template_Endpoint_RW.c **** 	if (BytesProcessed != NULL)
 1859               		.loc 3 45 0
 1860 0026 E114      		cp r14,__zero_reg__
 1861 0028 F104      		cpc r15,__zero_reg__
 1862 002a 01F0      		breq .L148
  47:../../protocol/lufa/LUFA-120730/LUFA/Drivers/USB/Core/AVR8/Template/Template_Endpoint_RW.c **** 		Length -= *BytesProcessed;
 1863               		.loc 3 47 0
 1864 002c F701      		movw r30,r14
 1865 002e 8081      		ld r24,Z
 1866 0030 9181      		ldd r25,Z+1
 1867               	.LVL193:
 1868 0032 081B      		sub r16,r24
 1869 0034 190B      		sbc r17,r25
 1870               	.LVL194:
  48:../../protocol/lufa/LUFA-120730/LUFA/Drivers/USB/Core/AVR8/Template/Template_Endpoint_RW.c **** 		TEMPLATE_BUFFER_MOVE(DataStream, *BytesProcessed);
 1871               		.loc 3 48 0
 1872 0036 C81B      		sub r28,r24
 1873 0038 D90B      		sbc r29,r25
 1874               	.LVL195:
 1875               	.L148:
  37:../../protocol/lufa/LUFA-120730/LUFA/Drivers/USB/Core/AVR8/Template/Template_Endpoint_RW.c **** {
 1876               		.loc 3 37 0 discriminator 1
 1877 003a C12C      		mov r12,__zero_reg__
 1878 003c D12C      		mov r13,__zero_reg__
 1879               	.LVL196:
 1880               	.L149:
  51:../../protocol/lufa/LUFA-120730/LUFA/Drivers/USB/Core/AVR8/Template/Template_Endpoint_RW.c **** 	while (Length)
 1881               		.loc 3 51 0 discriminator 1
 1882 003e 0115      		cp r16,__zero_reg__
 1883 0040 1105      		cpc r17,__zero_reg__
 1884 0042 01F0      		breq .L159
 1885               	.LBB324:
 1886               	.LBB325:
 360:../../protocol/lufa/LUFA-120730/LUFA/Drivers/USB/Core/AVR8/../AVR8/../AVR8/Endpoint_AVR8.h **** 				return ((UEINTX & (1 << RWAL)) ? true : false);
 1887               		.loc 2 360 0
 1888 0044 8091 E800 		lds r24,232
 1889               	.LBE325:
 1890               	.LBE324:
  53:../../protocol/lufa/LUFA-120730/LUFA/Drivers/USB/Core/AVR8/Template/Template_Endpoint_RW.c **** 		if (!(Endpoint_IsReadWriteAllowed()))
 1891               		.loc 3 53 0
 1892 0048 85FD      		sbrc r24,5
 1893 004a 00C0      		rjmp .L150
 1894               	.LBB326:
 1895               	.LBB327:
 471:../../protocol/lufa/LUFA-120730/LUFA/Drivers/USB/Core/AVR8/../AVR8/../AVR8/Endpoint_AVR8.h **** 					UEINTX &= ~((1 << RXOUTI) | (1 << FIFOCON));
 1896               		.loc 2 471 0
 1897 004c 8091 E800 		lds r24,232
 1898 0050 8B77      		andi r24,lo8(123)
 1899 0052 8093 E800 		sts 232,r24
 1900               	.LBE327:
 1901               	.LBE326:
  61:../../protocol/lufa/LUFA-120730/LUFA/Drivers/USB/Core/AVR8/Template/Template_Endpoint_RW.c **** 			if (BytesProcessed != NULL)
 1902               		.loc 3 61 0
 1903 0056 E114      		cp r14,__zero_reg__
 1904 0058 F104      		cpc r15,__zero_reg__
 1905 005a 01F0      		breq .L151
  63:../../protocol/lufa/LUFA-120730/LUFA/Drivers/USB/Core/AVR8/Template/Template_Endpoint_RW.c **** 				*BytesProcessed += BytesInTransfer;
 1906               		.loc 3 63 0
 1907 005c F701      		movw r30,r14
 1908 005e 8081      		ld r24,Z
 1909 0060 9181      		ldd r25,Z+1
 1910 0062 8C0D      		add r24,r12
 1911 0064 9D1D      		adc r25,r13
 1912 0066 9183      		std Z+1,r25
 1913 0068 8083      		st Z,r24
  64:../../protocol/lufa/LUFA-120730/LUFA/Drivers/USB/Core/AVR8/Template/Template_Endpoint_RW.c **** 				return ENDPOINT_RWSTREAM_IncompleteTransfer;
 1914               		.loc 3 64 0
 1915 006a 85E0      		ldi r24,lo8(5)
 1916 006c 00C0      		rjmp .L147
 1917               	.L151:
  67:../../protocol/lufa/LUFA-120730/LUFA/Drivers/USB/Core/AVR8/Template/Template_Endpoint_RW.c **** 			if ((ErrorCode = Endpoint_WaitUntilReady()))
 1918               		.loc 3 67 0
 1919 006e 0E94 0000 		call Endpoint_WaitUntilReady
 1920               	.LVL197:
 1921 0072 8823      		tst r24
 1922 0074 01F0      		breq .L149
 1923 0076 00C0      		rjmp .L147
 1924               	.LVL198:
 1925               	.L150:
 1926               	.LBB328:
 1927               	.LBB329:
 542:../../protocol/lufa/LUFA-120730/LUFA/Drivers/USB/Core/AVR8/../AVR8/../AVR8/Endpoint_AVR8.h **** 				return UEDATX;
 1928               		.loc 2 542 0
 1929 0078 6091 F100 		lds r22,241
 1930               	.LBE329:
 1931               	.LBE328:
  72:../../protocol/lufa/LUFA-120730/LUFA/Drivers/USB/Core/AVR8/Template/Template_Endpoint_RW.c **** 			TEMPLATE_TRANSFER_BYTE(DataStream);
 1932               		.loc 3 72 0
 1933 007c CE01      		movw r24,r28
 1934 007e 0E94 0000 		call __eeupd_byte_m32u4
 1935               	.LVL199:
  73:../../protocol/lufa/LUFA-120730/LUFA/Drivers/USB/Core/AVR8/Template/Template_Endpoint_RW.c **** 			TEMPLATE_BUFFER_MOVE(DataStream, 1);
 1936               		.loc 3 73 0
 1937 0082 2197      		sbiw r28,1
 1938               	.LVL200:
  74:../../protocol/lufa/LUFA-120730/LUFA/Drivers/USB/Core/AVR8/Template/Template_Endpoint_RW.c **** 			Length--;
 1939               		.loc 3 74 0
 1940 0084 0150      		subi r16,1
 1941 0086 1109      		sbc r17,__zero_reg__
 1942               	.LVL201:
  75:../../protocol/lufa/LUFA-120730/LUFA/Drivers/USB/Core/AVR8/Template/Template_Endpoint_RW.c **** 			BytesInTransfer++;
 1943               		.loc 3 75 0
 1944 0088 FFEF      		ldi r31,-1
 1945 008a CF1A      		sub r12,r31
 1946 008c DF0A      		sbc r13,r31
 1947               	.LVL202:
 1948 008e 00C0      		rjmp .L149
 1949               	.L159:
  79:../../protocol/lufa/LUFA-120730/LUFA/Drivers/USB/Core/AVR8/Template/Template_Endpoint_RW.c **** 	return ENDPOINT_RWSTREAM_NoError;
 1950               		.loc 3 79 0
 1951 0090 80E0      		ldi r24,0
 1952               	.LVL203:
 1953               	.L147:
 1954               	/* epilogue start */
 1955               		.loc 3 80 0
 1956 0092 DF91      		pop r29
 1957 0094 CF91      		pop r28
 1958 0096 1F91      		pop r17
 1959 0098 0F91      		pop r16
 1960               	.LVL204:
 1961 009a FF90      		pop r15
 1962 009c EF90      		pop r14
 1963               	.LVL205:
 1964 009e DF90      		pop r13
 1965 00a0 CF90      		pop r12
 1966 00a2 0895      		ret
 1967               		.cfi_endproc
 1968               	.LFE95:
 1970               		.section	.text.Endpoint_Write_Control_Stream_LE,"ax",@progbits
 1971               	.global	Endpoint_Write_Control_Stream_LE
 1973               	Endpoint_Write_Control_Stream_LE:
 1974               	.LFB96:
 1975               		.file 4 "../../protocol/lufa/LUFA-120730/LUFA/Drivers/USB/Core/AVR8/Template/Template_Endpoint_Con
   1:../../protocol/lufa/LUFA-120730/LUFA/Drivers/USB/Core/AVR8/Template/Template_Endpoint_Control_W.c **** /*
   2:../../protocol/lufa/LUFA-120730/LUFA/Drivers/USB/Core/AVR8/Template/Template_Endpoint_Control_W.c ****              LUFA Library
   3:../../protocol/lufa/LUFA-120730/LUFA/Drivers/USB/Core/AVR8/Template/Template_Endpoint_Control_W.c ****      Copyright (C) Dean Camera, 2012.
   4:../../protocol/lufa/LUFA-120730/LUFA/Drivers/USB/Core/AVR8/Template/Template_Endpoint_Control_W.c **** 
   5:../../protocol/lufa/LUFA-120730/LUFA/Drivers/USB/Core/AVR8/Template/Template_Endpoint_Control_W.c ****   dean [at] fourwalledcubicle [dot] com
   6:../../protocol/lufa/LUFA-120730/LUFA/Drivers/USB/Core/AVR8/Template/Template_Endpoint_Control_W.c ****            www.lufa-lib.org
   7:../../protocol/lufa/LUFA-120730/LUFA/Drivers/USB/Core/AVR8/Template/Template_Endpoint_Control_W.c **** */
   8:../../protocol/lufa/LUFA-120730/LUFA/Drivers/USB/Core/AVR8/Template/Template_Endpoint_Control_W.c **** 
   9:../../protocol/lufa/LUFA-120730/LUFA/Drivers/USB/Core/AVR8/Template/Template_Endpoint_Control_W.c **** /*
  10:../../protocol/lufa/LUFA-120730/LUFA/Drivers/USB/Core/AVR8/Template/Template_Endpoint_Control_W.c ****   Copyright 2012  Dean Camera (dean [at] fourwalledcubicle [dot] com)
  11:../../protocol/lufa/LUFA-120730/LUFA/Drivers/USB/Core/AVR8/Template/Template_Endpoint_Control_W.c **** 
  12:../../protocol/lufa/LUFA-120730/LUFA/Drivers/USB/Core/AVR8/Template/Template_Endpoint_Control_W.c ****   Permission to use, copy, modify, distribute, and sell this
  13:../../protocol/lufa/LUFA-120730/LUFA/Drivers/USB/Core/AVR8/Template/Template_Endpoint_Control_W.c ****   software and its documentation for any purpose is hereby granted
  14:../../protocol/lufa/LUFA-120730/LUFA/Drivers/USB/Core/AVR8/Template/Template_Endpoint_Control_W.c ****   without fee, provided that the above copyright notice appear in
  15:../../protocol/lufa/LUFA-120730/LUFA/Drivers/USB/Core/AVR8/Template/Template_Endpoint_Control_W.c ****   all copies and that both that the copyright notice and this
  16:../../protocol/lufa/LUFA-120730/LUFA/Drivers/USB/Core/AVR8/Template/Template_Endpoint_Control_W.c ****   permission notice and warranty disclaimer appear in supporting
  17:../../protocol/lufa/LUFA-120730/LUFA/Drivers/USB/Core/AVR8/Template/Template_Endpoint_Control_W.c ****   documentation, and that the name of the author not be used in
  18:../../protocol/lufa/LUFA-120730/LUFA/Drivers/USB/Core/AVR8/Template/Template_Endpoint_Control_W.c ****   advertising or publicity pertaining to distribution of the
  19:../../protocol/lufa/LUFA-120730/LUFA/Drivers/USB/Core/AVR8/Template/Template_Endpoint_Control_W.c ****   software without specific, written prior permission.
  20:../../protocol/lufa/LUFA-120730/LUFA/Drivers/USB/Core/AVR8/Template/Template_Endpoint_Control_W.c **** 
  21:../../protocol/lufa/LUFA-120730/LUFA/Drivers/USB/Core/AVR8/Template/Template_Endpoint_Control_W.c ****   The author disclaim all warranties with regard to this
  22:../../protocol/lufa/LUFA-120730/LUFA/Drivers/USB/Core/AVR8/Template/Template_Endpoint_Control_W.c ****   software, including all implied warranties of merchantability
  23:../../protocol/lufa/LUFA-120730/LUFA/Drivers/USB/Core/AVR8/Template/Template_Endpoint_Control_W.c ****   and fitness.  In no event shall the author be liable for any
  24:../../protocol/lufa/LUFA-120730/LUFA/Drivers/USB/Core/AVR8/Template/Template_Endpoint_Control_W.c ****   special, indirect or consequential damages or any damages
  25:../../protocol/lufa/LUFA-120730/LUFA/Drivers/USB/Core/AVR8/Template/Template_Endpoint_Control_W.c ****   whatsoever resulting from loss of use, data or profits, whether
  26:../../protocol/lufa/LUFA-120730/LUFA/Drivers/USB/Core/AVR8/Template/Template_Endpoint_Control_W.c ****   in an action of contract, negligence or other tortious action,
  27:../../protocol/lufa/LUFA-120730/LUFA/Drivers/USB/Core/AVR8/Template/Template_Endpoint_Control_W.c ****   arising out of or in connection with the use or performance of
  28:../../protocol/lufa/LUFA-120730/LUFA/Drivers/USB/Core/AVR8/Template/Template_Endpoint_Control_W.c ****   this software.
  29:../../protocol/lufa/LUFA-120730/LUFA/Drivers/USB/Core/AVR8/Template/Template_Endpoint_Control_W.c **** */
  30:../../protocol/lufa/LUFA-120730/LUFA/Drivers/USB/Core/AVR8/Template/Template_Endpoint_Control_W.c **** 
  31:../../protocol/lufa/LUFA-120730/LUFA/Drivers/USB/Core/AVR8/Template/Template_Endpoint_Control_W.c **** #if defined(TEMPLATE_FUNC_NAME)
  32:../../protocol/lufa/LUFA-120730/LUFA/Drivers/USB/Core/AVR8/Template/Template_Endpoint_Control_W.c **** 
  33:../../protocol/lufa/LUFA-120730/LUFA/Drivers/USB/Core/AVR8/Template/Template_Endpoint_Control_W.c **** // cppcheck-suppress unusedFunction
  34:../../protocol/lufa/LUFA-120730/LUFA/Drivers/USB/Core/AVR8/Template/Template_Endpoint_Control_W.c **** uint8_t TEMPLATE_FUNC_NAME (const void* const Buffer,
  35:../../protocol/lufa/LUFA-120730/LUFA/Drivers/USB/Core/AVR8/Template/Template_Endpoint_Control_W.c ****                             uint16_t Length)
  36:../../protocol/lufa/LUFA-120730/LUFA/Drivers/USB/Core/AVR8/Template/Template_Endpoint_Control_W.c **** {
 1976               		.loc 4 36 0
 1977               		.cfi_startproc
 1978               	.LVL206:
 1979               	/* prologue: function */
 1980               	/* frame size = 0 */
 1981               	/* stack size = 0 */
 1982               	.L__stack_usage = 0
  37:../../protocol/lufa/LUFA-120730/LUFA/Drivers/USB/Core/AVR8/Template/Template_Endpoint_Control_W.c **** 	uint8_t* DataStream     = ((uint8_t*)Buffer + TEMPLATE_BUFFER_OFFSET(Length));
  38:../../protocol/lufa/LUFA-120730/LUFA/Drivers/USB/Core/AVR8/Template/Template_Endpoint_Control_W.c **** 	bool     LastPacketFull = false;
  39:../../protocol/lufa/LUFA-120730/LUFA/Drivers/USB/Core/AVR8/Template/Template_Endpoint_Control_W.c **** 
  40:../../protocol/lufa/LUFA-120730/LUFA/Drivers/USB/Core/AVR8/Template/Template_Endpoint_Control_W.c **** 	if (Length > USB_ControlRequest.wLength)
 1983               		.loc 4 40 0
 1984 0000 2091 0000 		lds r18,USB_ControlRequest+6
 1985 0004 3091 0000 		lds r19,USB_ControlRequest+6+1
 1986 0008 2617      		cp r18,r22
 1987 000a 3707      		cpc r19,r23
 1988 000c 00F0      		brlo .L175
  41:../../protocol/lufa/LUFA-120730/LUFA/Drivers/USB/Core/AVR8/Template/Template_Endpoint_Control_W.c **** 	  Length = USB_ControlRequest.wLength;
  42:../../protocol/lufa/LUFA-120730/LUFA/Drivers/USB/Core/AVR8/Template/Template_Endpoint_Control_W.c **** 	else if (!(Length))
 1989               		.loc 4 42 0
 1990 000e 6115      		cp r22,__zero_reg__
 1991 0010 7105      		cpc r23,__zero_reg__
 1992 0012 01F4      		brne .L161
 1993               	.LBB330:
 1994               	.LBB331:
 456:../../protocol/lufa/LUFA-120730/LUFA/Drivers/USB/Core/AVR8/../AVR8/../AVR8/Endpoint_AVR8.h **** 					UEINTX &= ~((1 << TXINI) | (1 << FIFOCON));
 1995               		.loc 2 456 0
 1996 0014 2091 E800 		lds r18,232
 1997 0018 2E77      		andi r18,lo8(126)
 1998 001a 2093 E800 		sts 232,r18
 1999 001e 00C0      		rjmp .L161
 2000               	.L175:
 2001               	.LBE331:
 2002               	.LBE330:
 2003 0020 B901      		movw r22,r18
 2004               	.LVL207:
 2005               	.L161:
 2006               	.LBB332:
 2007               	.LBB333:
  43:../../protocol/lufa/LUFA-120730/LUFA/Drivers/USB/Core/AVR8/Template/Template_Endpoint_Control_W.c **** 	  Endpoint_ClearIN();
  44:../../protocol/lufa/LUFA-120730/LUFA/Drivers/USB/Core/AVR8/Template/Template_Endpoint_Control_W.c **** 
  45:../../protocol/lufa/LUFA-120730/LUFA/Drivers/USB/Core/AVR8/Template/Template_Endpoint_Control_W.c **** 	while (Length || LastPacketFull)
  46:../../protocol/lufa/LUFA-120730/LUFA/Drivers/USB/Core/AVR8/Template/Template_Endpoint_Control_W.c **** 	{
  47:../../protocol/lufa/LUFA-120730/LUFA/Drivers/USB/Core/AVR8/Template/Template_Endpoint_Control_W.c **** 		uint8_t USB_DeviceState_LCL = USB_DeviceState;
  48:../../protocol/lufa/LUFA-120730/LUFA/Drivers/USB/Core/AVR8/Template/Template_Endpoint_Control_W.c **** 
  49:../../protocol/lufa/LUFA-120730/LUFA/Drivers/USB/Core/AVR8/Template/Template_Endpoint_Control_W.c **** 		if (USB_DeviceState_LCL == DEVICE_STATE_Unattached)
  50:../../protocol/lufa/LUFA-120730/LUFA/Drivers/USB/Core/AVR8/Template/Template_Endpoint_Control_W.c **** 		  return ENDPOINT_RWCSTREAM_DeviceDisconnected;
  51:../../protocol/lufa/LUFA-120730/LUFA/Drivers/USB/Core/AVR8/Template/Template_Endpoint_Control_W.c **** 		else if (USB_DeviceState_LCL == DEVICE_STATE_Suspended)
  52:../../protocol/lufa/LUFA-120730/LUFA/Drivers/USB/Core/AVR8/Template/Template_Endpoint_Control_W.c **** 		  return ENDPOINT_RWCSTREAM_BusSuspended;
  53:../../protocol/lufa/LUFA-120730/LUFA/Drivers/USB/Core/AVR8/Template/Template_Endpoint_Control_W.c **** 		else if (Endpoint_IsSETUPReceived())
  54:../../protocol/lufa/LUFA-120730/LUFA/Drivers/USB/Core/AVR8/Template/Template_Endpoint_Control_W.c **** 		  return ENDPOINT_RWCSTREAM_HostAborted;
  55:../../protocol/lufa/LUFA-120730/LUFA/Drivers/USB/Core/AVR8/Template/Template_Endpoint_Control_W.c **** 		else if (Endpoint_IsOUTReceived())
  56:../../protocol/lufa/LUFA-120730/LUFA/Drivers/USB/Core/AVR8/Template/Template_Endpoint_Control_W.c **** 		  break;
  57:../../protocol/lufa/LUFA-120730/LUFA/Drivers/USB/Core/AVR8/Template/Template_Endpoint_Control_W.c **** 
  58:../../protocol/lufa/LUFA-120730/LUFA/Drivers/USB/Core/AVR8/Template/Template_Endpoint_Control_W.c **** 		if (Endpoint_IsINReady())
  59:../../protocol/lufa/LUFA-120730/LUFA/Drivers/USB/Core/AVR8/Template/Template_Endpoint_Control_W.c **** 		{
  60:../../protocol/lufa/LUFA-120730/LUFA/Drivers/USB/Core/AVR8/Template/Template_Endpoint_Control_W.c **** 			uint16_t BytesInEndpoint = Endpoint_BytesInEndpoint();
  61:../../protocol/lufa/LUFA-120730/LUFA/Drivers/USB/Core/AVR8/Template/Template_Endpoint_Control_W.c **** 
  62:../../protocol/lufa/LUFA-120730/LUFA/Drivers/USB/Core/AVR8/Template/Template_Endpoint_Control_W.c **** 			while (Length && (BytesInEndpoint < USB_Device_ControlEndpointSize))
 2008               		.loc 4 62 0 discriminator 1
 2009 0022 40E0      		ldi r20,0
 2010               	.LVL208:
 2011               	.L167:
 2012               	.LBE333:
 2013               	.LBE332:
  45:../../protocol/lufa/LUFA-120730/LUFA/Drivers/USB/Core/AVR8/Template/Template_Endpoint_Control_W.c **** 	while (Length || LastPacketFull)
 2014               		.loc 4 45 0 discriminator 1
 2015 0024 6115      		cp r22,__zero_reg__
 2016 0026 7105      		cpc r23,__zero_reg__
 2017 0028 01F4      		brne .+2
 2018 002a 00C0      		rjmp .L184
 2019               	.L172:
 2020               	.LBB347:
  47:../../protocol/lufa/LUFA-120730/LUFA/Drivers/USB/Core/AVR8/Template/Template_Endpoint_Control_W.c **** 		uint8_t USB_DeviceState_LCL = USB_DeviceState;
 2021               		.loc 4 47 0
 2022 002c 2091 0000 		lds r18,USB_DeviceState
 2023               	.LVL209:
  49:../../protocol/lufa/LUFA-120730/LUFA/Drivers/USB/Core/AVR8/Template/Template_Endpoint_Control_W.c **** 		if (USB_DeviceState_LCL == DEVICE_STATE_Unattached)
 2024               		.loc 4 49 0
 2025 0030 2223      		tst r18
 2026 0032 01F4      		brne .+2
 2027 0034 00C0      		rjmp .L179
  51:../../protocol/lufa/LUFA-120730/LUFA/Drivers/USB/Core/AVR8/Template/Template_Endpoint_Control_W.c **** 		else if (USB_DeviceState_LCL == DEVICE_STATE_Suspended)
 2028               		.loc 4 51 0
 2029 0036 2530      		cpi r18,lo8(5)
 2030 0038 01F4      		brne .+2
 2031 003a 00C0      		rjmp .L180
 2032               	.LBB340:
 2033               	.LBB341:
 431:../../protocol/lufa/LUFA-120730/LUFA/Drivers/USB/Core/AVR8/../AVR8/../AVR8/Endpoint_AVR8.h **** 				return ((UEINTX & (1 << RXSTPI)) ? true : false);
 2034               		.loc 2 431 0
 2035 003c 2091 E800 		lds r18,232
 2036               	.LVL210:
 2037               	.LBE341:
 2038               	.LBE340:
  53:../../protocol/lufa/LUFA-120730/LUFA/Drivers/USB/Core/AVR8/Template/Template_Endpoint_Control_W.c **** 		else if (Endpoint_IsSETUPReceived())
 2039               		.loc 4 53 0
 2040 0040 23FD      		sbrc r18,3
 2041 0042 00C0      		rjmp .L178
 2042               	.LBB342:
 2043               	.LBB343:
 419:../../protocol/lufa/LUFA-120730/LUFA/Drivers/USB/Core/AVR8/../AVR8/../AVR8/Endpoint_AVR8.h **** 				return ((UEINTX & (1 << RXOUTI)) ? true : false);
 2044               		.loc 2 419 0
 2045 0044 2091 E800 		lds r18,232
 2046               	.LBE343:
 2047               	.LBE342:
  55:../../protocol/lufa/LUFA-120730/LUFA/Drivers/USB/Core/AVR8/Template/Template_Endpoint_Control_W.c **** 		else if (Endpoint_IsOUTReceived())
 2048               		.loc 4 55 0
 2049 0048 22FF      		sbrs r18,2
 2050 004a 00C0      		rjmp .L164
 2051               	.L174:
 2052               	.LBE347:
 2053               	.LBB348:
 2054               	.LBB349:
 419:../../protocol/lufa/LUFA-120730/LUFA/Drivers/USB/Core/AVR8/../AVR8/../AVR8/Endpoint_AVR8.h **** 				return ((UEINTX & (1 << RXOUTI)) ? true : false);
 2055               		.loc 2 419 0 discriminator 1
 2056 004c 8091 E800 		lds r24,232
 2057               	.LBE349:
 2058               	.LBE348:
  63:../../protocol/lufa/LUFA-120730/LUFA/Drivers/USB/Core/AVR8/Template/Template_Endpoint_Control_W.c **** 			{
  64:../../protocol/lufa/LUFA-120730/LUFA/Drivers/USB/Core/AVR8/Template/Template_Endpoint_Control_W.c **** 				TEMPLATE_TRANSFER_BYTE(DataStream);
  65:../../protocol/lufa/LUFA-120730/LUFA/Drivers/USB/Core/AVR8/Template/Template_Endpoint_Control_W.c **** 				TEMPLATE_BUFFER_MOVE(DataStream, 1);
  66:../../protocol/lufa/LUFA-120730/LUFA/Drivers/USB/Core/AVR8/Template/Template_Endpoint_Control_W.c **** 				Length--;
  67:../../protocol/lufa/LUFA-120730/LUFA/Drivers/USB/Core/AVR8/Template/Template_Endpoint_Control_W.c **** 				BytesInEndpoint++;
  68:../../protocol/lufa/LUFA-120730/LUFA/Drivers/USB/Core/AVR8/Template/Template_Endpoint_Control_W.c **** 			}
  69:../../protocol/lufa/LUFA-120730/LUFA/Drivers/USB/Core/AVR8/Template/Template_Endpoint_Control_W.c **** 
  70:../../protocol/lufa/LUFA-120730/LUFA/Drivers/USB/Core/AVR8/Template/Template_Endpoint_Control_W.c **** 			LastPacketFull = (BytesInEndpoint == USB_Device_ControlEndpointSize);
  71:../../protocol/lufa/LUFA-120730/LUFA/Drivers/USB/Core/AVR8/Template/Template_Endpoint_Control_W.c **** 			Endpoint_ClearIN();
  72:../../protocol/lufa/LUFA-120730/LUFA/Drivers/USB/Core/AVR8/Template/Template_Endpoint_Control_W.c **** 		}
  73:../../protocol/lufa/LUFA-120730/LUFA/Drivers/USB/Core/AVR8/Template/Template_Endpoint_Control_W.c **** 	}
  74:../../protocol/lufa/LUFA-120730/LUFA/Drivers/USB/Core/AVR8/Template/Template_Endpoint_Control_W.c **** 
  75:../../protocol/lufa/LUFA-120730/LUFA/Drivers/USB/Core/AVR8/Template/Template_Endpoint_Control_W.c **** 	while (!(Endpoint_IsOUTReceived()))
 2059               		.loc 4 75 0 discriminator 1
 2060 0050 82FF      		sbrs r24,2
 2061 0052 00C0      		rjmp .L165
  76:../../protocol/lufa/LUFA-120730/LUFA/Drivers/USB/Core/AVR8/Template/Template_Endpoint_Control_W.c **** 	{
  77:../../protocol/lufa/LUFA-120730/LUFA/Drivers/USB/Core/AVR8/Template/Template_Endpoint_Control_W.c **** 		uint8_t USB_DeviceState_LCL = USB_DeviceState;
  78:../../protocol/lufa/LUFA-120730/LUFA/Drivers/USB/Core/AVR8/Template/Template_Endpoint_Control_W.c **** 
  79:../../protocol/lufa/LUFA-120730/LUFA/Drivers/USB/Core/AVR8/Template/Template_Endpoint_Control_W.c **** 		if (USB_DeviceState_LCL == DEVICE_STATE_Unattached)
  80:../../protocol/lufa/LUFA-120730/LUFA/Drivers/USB/Core/AVR8/Template/Template_Endpoint_Control_W.c **** 		  return ENDPOINT_RWCSTREAM_DeviceDisconnected;
  81:../../protocol/lufa/LUFA-120730/LUFA/Drivers/USB/Core/AVR8/Template/Template_Endpoint_Control_W.c **** 		else if (USB_DeviceState_LCL == DEVICE_STATE_Suspended)
  82:../../protocol/lufa/LUFA-120730/LUFA/Drivers/USB/Core/AVR8/Template/Template_Endpoint_Control_W.c **** 		  return ENDPOINT_RWCSTREAM_BusSuspended;
  83:../../protocol/lufa/LUFA-120730/LUFA/Drivers/USB/Core/AVR8/Template/Template_Endpoint_Control_W.c **** 	}
  84:../../protocol/lufa/LUFA-120730/LUFA/Drivers/USB/Core/AVR8/Template/Template_Endpoint_Control_W.c **** 
  85:../../protocol/lufa/LUFA-120730/LUFA/Drivers/USB/Core/AVR8/Template/Template_Endpoint_Control_W.c **** 	return ENDPOINT_RWCSTREAM_NoError;
 2062               		.loc 4 85 0
 2063 0054 80E0      		ldi r24,0
 2064 0056 0895      		ret
 2065               	.L164:
 2066               	.LBB350:
 2067               	.LBB344:
 2068               	.LBB345:
 407:../../protocol/lufa/LUFA-120730/LUFA/Drivers/USB/Core/AVR8/../AVR8/../AVR8/Endpoint_AVR8.h **** 				return ((UEINTX & (1 << TXINI)) ? true : false);
 2069               		.loc 2 407 0
 2070 0058 2091 E800 		lds r18,232
 2071               	.LBE345:
 2072               	.LBE344:
  58:../../protocol/lufa/LUFA-120730/LUFA/Drivers/USB/Core/AVR8/Template/Template_Endpoint_Control_W.c **** 		if (Endpoint_IsINReady())
 2073               		.loc 4 58 0
 2074 005c 20FF      		sbrs r18,0
 2075 005e 00C0      		rjmp .L167
 2076               	.LBB346:
 2077               	.LBB334:
 2078               	.LBB335:
 227:../../protocol/lufa/LUFA-120730/LUFA/Drivers/USB/Core/AVR8/../AVR8/../AVR8/Endpoint_AVR8.h **** 					return (((uint16_t)UEBCHX << 8) | UEBCLX);
 2079               		.loc 2 227 0
 2080 0060 4091 F300 		lds r20,243
 2081               	.LVL211:
 2082 0064 2091 F200 		lds r18,242
 2083 0068 30E0      		ldi r19,0
 2084 006a 342B      		or r19,r20
 2085               	.LBE335:
 2086               	.LBE334:
  62:../../protocol/lufa/LUFA-120730/LUFA/Drivers/USB/Core/AVR8/Template/Template_Endpoint_Control_W.c **** 			while (Length && (BytesInEndpoint < USB_Device_ControlEndpointSize))
 2087               		.loc 4 62 0
 2088 006c FC01      		movw r30,r24
 2089 006e 281B      		sub r18,r24
 2090 0070 390B      		sbc r19,r25
 2091               	.L168:
 2092 0072 CF01      		movw r24,r30
 2093 0074 820F      		add r24,r18
 2094 0076 931F      		adc r25,r19
 2095               	.LVL212:
 2096 0078 A091 0000 		lds r26,USB_Device_ControlEndpointSize
  62:../../protocol/lufa/LUFA-120730/LUFA/Drivers/USB/Core/AVR8/Template/Template_Endpoint_Control_W.c **** 			while (Length && (BytesInEndpoint < USB_Device_ControlEndpointSize))
 2097               		.loc 4 62 0 is_stmt 0 discriminator 1
 2098 007c 6115      		cp r22,__zero_reg__
 2099 007e 7105      		cpc r23,__zero_reg__
 2100 0080 01F0      		breq .L169
  62:../../protocol/lufa/LUFA-120730/LUFA/Drivers/USB/Core/AVR8/Template/Template_Endpoint_Control_W.c **** 			while (Length && (BytesInEndpoint < USB_Device_ControlEndpointSize))
 2101               		.loc 4 62 0 discriminator 2
 2102 0082 4A2F      		mov r20,r26
 2103 0084 50E0      		ldi r21,0
 2104 0086 8417      		cp r24,r20
 2105 0088 9507      		cpc r25,r21
 2106 008a 00F4      		brsh .L169
  64:../../protocol/lufa/LUFA-120730/LUFA/Drivers/USB/Core/AVR8/Template/Template_Endpoint_Control_W.c **** 				TEMPLATE_TRANSFER_BYTE(DataStream);
 2107               		.loc 4 64 0 is_stmt 1
 2108 008c 8191      		ld r24,Z+
 2109               	.LVL213:
 2110               	.LBB336:
 2111               	.LBB337:
 554:../../protocol/lufa/LUFA-120730/LUFA/Drivers/USB/Core/AVR8/../AVR8/../AVR8/Endpoint_AVR8.h **** 				UEDATX = Data;
 2112               		.loc 2 554 0
 2113 008e 8093 F100 		sts 241,r24
 2114               	.LVL214:
 2115               	.LBE337:
 2116               	.LBE336:
  66:../../protocol/lufa/LUFA-120730/LUFA/Drivers/USB/Core/AVR8/Template/Template_Endpoint_Control_W.c **** 				Length--;
 2117               		.loc 4 66 0
 2118 0092 6150      		subi r22,1
 2119 0094 7109      		sbc r23,__zero_reg__
 2120               	.LVL215:
 2121 0096 00C0      		rjmp .L168
 2122               	.LVL216:
 2123               	.L169:
  70:../../protocol/lufa/LUFA-120730/LUFA/Drivers/USB/Core/AVR8/Template/Template_Endpoint_Control_W.c **** 			LastPacketFull = (BytesInEndpoint == USB_Device_ControlEndpointSize);
 2124               		.loc 4 70 0
 2125 0098 2A2F      		mov r18,r26
 2126 009a 30E0      		ldi r19,0
 2127 009c 41E0      		ldi r20,lo8(1)
 2128 009e 8217      		cp r24,r18
 2129 00a0 9307      		cpc r25,r19
 2130 00a2 01F0      		breq .L171
 2131 00a4 40E0      		ldi r20,0
 2132               	.L171:
 2133               	.LVL217:
 2134               	.LBB338:
 2135               	.LBB339:
 456:../../protocol/lufa/LUFA-120730/LUFA/Drivers/USB/Core/AVR8/../AVR8/../AVR8/Endpoint_AVR8.h **** 					UEINTX &= ~((1 << TXINI) | (1 << FIFOCON));
 2136               		.loc 2 456 0
 2137 00a6 8091 E800 		lds r24,232
 2138               	.LVL218:
 2139 00aa 8E77      		andi r24,lo8(126)
 2140 00ac 8093 E800 		sts 232,r24
 2141 00b0 CF01      		movw r24,r30
 2142 00b2 00C0      		rjmp .L167
 2143               	.LVL219:
 2144               	.L184:
 2145               	.LBE339:
 2146               	.LBE338:
 2147               	.LBE346:
 2148               	.LBE350:
  45:../../protocol/lufa/LUFA-120730/LUFA/Drivers/USB/Core/AVR8/Template/Template_Endpoint_Control_W.c **** 	while (Length || LastPacketFull)
 2149               		.loc 4 45 0 discriminator 2
 2150 00b4 4111      		cpse r20,__zero_reg__
 2151 00b6 00C0      		rjmp .L172
 2152 00b8 00C0      		rjmp .L174
 2153               	.L165:
 2154               	.LBB351:
  77:../../protocol/lufa/LUFA-120730/LUFA/Drivers/USB/Core/AVR8/Template/Template_Endpoint_Control_W.c **** 		uint8_t USB_DeviceState_LCL = USB_DeviceState;
 2155               		.loc 4 77 0
 2156 00ba 8091 0000 		lds r24,USB_DeviceState
 2157               	.LVL220:
  79:../../protocol/lufa/LUFA-120730/LUFA/Drivers/USB/Core/AVR8/Template/Template_Endpoint_Control_W.c **** 		if (USB_DeviceState_LCL == DEVICE_STATE_Unattached)
 2158               		.loc 4 79 0
 2159 00be 8823      		tst r24
 2160 00c0 01F0      		breq .L179
  81:../../protocol/lufa/LUFA-120730/LUFA/Drivers/USB/Core/AVR8/Template/Template_Endpoint_Control_W.c **** 		else if (USB_DeviceState_LCL == DEVICE_STATE_Suspended)
 2161               		.loc 4 81 0
 2162 00c2 8530      		cpi r24,lo8(5)
 2163 00c4 01F4      		brne .L174
 2164 00c6 00C0      		rjmp .L180
 2165               	.LVL221:
 2166               	.L178:
 2167               	.LBE351:
 2168               	.LBB352:
  54:../../protocol/lufa/LUFA-120730/LUFA/Drivers/USB/Core/AVR8/Template/Template_Endpoint_Control_W.c **** 		  return ENDPOINT_RWCSTREAM_HostAborted;
 2169               		.loc 4 54 0
 2170 00c8 81E0      		ldi r24,lo8(1)
 2171 00ca 0895      		ret
 2172               	.L179:
  50:../../protocol/lufa/LUFA-120730/LUFA/Drivers/USB/Core/AVR8/Template/Template_Endpoint_Control_W.c **** 		  return ENDPOINT_RWCSTREAM_DeviceDisconnected;
 2173               		.loc 4 50 0
 2174 00cc 82E0      		ldi r24,lo8(2)
 2175 00ce 0895      		ret
 2176               	.L180:
  52:../../protocol/lufa/LUFA-120730/LUFA/Drivers/USB/Core/AVR8/Template/Template_Endpoint_Control_W.c **** 		  return ENDPOINT_RWCSTREAM_BusSuspended;
 2177               		.loc 4 52 0
 2178 00d0 83E0      		ldi r24,lo8(3)
 2179               	.LBE352:
  86:../../protocol/lufa/LUFA-120730/LUFA/Drivers/USB/Core/AVR8/Template/Template_Endpoint_Control_W.c **** }
 2180               		.loc 4 86 0
 2181 00d2 0895      		ret
 2182               		.cfi_endproc
 2183               	.LFE96:
 2185               		.section	.text.Endpoint_Write_Control_Stream_BE,"ax",@progbits
 2186               	.global	Endpoint_Write_Control_Stream_BE
 2188               	Endpoint_Write_Control_Stream_BE:
 2189               	.LFB97:
  36:../../protocol/lufa/LUFA-120730/LUFA/Drivers/USB/Core/AVR8/Template/Template_Endpoint_Control_W.c **** {
 2190               		.loc 4 36 0
 2191               		.cfi_startproc
 2192               	.LVL222:
 2193               	/* prologue: function */
 2194               	/* frame size = 0 */
 2195               	/* stack size = 0 */
 2196               	.L__stack_usage = 0
  37:../../protocol/lufa/LUFA-120730/LUFA/Drivers/USB/Core/AVR8/Template/Template_Endpoint_Control_W.c **** 	uint8_t* DataStream     = ((uint8_t*)Buffer + TEMPLATE_BUFFER_OFFSET(Length));
 2197               		.loc 4 37 0
 2198 0000 FB01      		movw r30,r22
 2199 0002 3197      		sbiw r30,1
 2200 0004 E80F      		add r30,r24
 2201 0006 F91F      		adc r31,r25
 2202               	.LVL223:
  40:../../protocol/lufa/LUFA-120730/LUFA/Drivers/USB/Core/AVR8/Template/Template_Endpoint_Control_W.c **** 	if (Length > USB_ControlRequest.wLength)
 2203               		.loc 4 40 0
 2204 0008 8091 0000 		lds r24,USB_ControlRequest+6
 2205 000c 9091 0000 		lds r25,USB_ControlRequest+6+1
 2206               	.LVL224:
 2207 0010 8617      		cp r24,r22
 2208 0012 9707      		cpc r25,r23
 2209 0014 00F0      		brlo .L200
  42:../../protocol/lufa/LUFA-120730/LUFA/Drivers/USB/Core/AVR8/Template/Template_Endpoint_Control_W.c **** 	else if (!(Length))
 2210               		.loc 4 42 0
 2211 0016 6115      		cp r22,__zero_reg__
 2212 0018 7105      		cpc r23,__zero_reg__
 2213 001a 01F4      		brne .L186
 2214               	.LBB353:
 2215               	.LBB354:
 456:../../protocol/lufa/LUFA-120730/LUFA/Drivers/USB/Core/AVR8/../AVR8/../AVR8/Endpoint_AVR8.h **** 					UEINTX &= ~((1 << TXINI) | (1 << FIFOCON));
 2216               		.loc 2 456 0
 2217 001c 8091 E800 		lds r24,232
 2218 0020 8E77      		andi r24,lo8(126)
 2219 0022 8093 E800 		sts 232,r24
 2220 0026 00C0      		rjmp .L186
 2221               	.L200:
 2222               	.LBE354:
 2223               	.LBE353:
 2224 0028 BC01      		movw r22,r24
 2225               	.LVL225:
 2226               	.L186:
 2227 002a 40E0      		ldi r20,0
 2228               	.LVL226:
 2229               	.L192:
  45:../../protocol/lufa/LUFA-120730/LUFA/Drivers/USB/Core/AVR8/Template/Template_Endpoint_Control_W.c **** 	while (Length || LastPacketFull)
 2230               		.loc 4 45 0 discriminator 1
 2231 002c 6115      		cp r22,__zero_reg__
 2232 002e 7105      		cpc r23,__zero_reg__
 2233 0030 01F4      		brne .+2
 2234 0032 00C0      		rjmp .L209
 2235               	.L197:
 2236               	.LBB355:
  47:../../protocol/lufa/LUFA-120730/LUFA/Drivers/USB/Core/AVR8/Template/Template_Endpoint_Control_W.c **** 		uint8_t USB_DeviceState_LCL = USB_DeviceState;
 2237               		.loc 4 47 0
 2238 0034 8091 0000 		lds r24,USB_DeviceState
 2239               	.LVL227:
  49:../../protocol/lufa/LUFA-120730/LUFA/Drivers/USB/Core/AVR8/Template/Template_Endpoint_Control_W.c **** 		if (USB_DeviceState_LCL == DEVICE_STATE_Unattached)
 2240               		.loc 4 49 0
 2241 0038 8823      		tst r24
 2242 003a 01F4      		brne .+2
 2243 003c 00C0      		rjmp .L204
  51:../../protocol/lufa/LUFA-120730/LUFA/Drivers/USB/Core/AVR8/Template/Template_Endpoint_Control_W.c **** 		else if (USB_DeviceState_LCL == DEVICE_STATE_Suspended)
 2244               		.loc 4 51 0
 2245 003e 8530      		cpi r24,lo8(5)
 2246 0040 01F4      		brne .+2
 2247 0042 00C0      		rjmp .L205
 2248               	.LBB356:
 2249               	.LBB357:
 431:../../protocol/lufa/LUFA-120730/LUFA/Drivers/USB/Core/AVR8/../AVR8/../AVR8/Endpoint_AVR8.h **** 				return ((UEINTX & (1 << RXSTPI)) ? true : false);
 2250               		.loc 2 431 0
 2251 0044 8091 E800 		lds r24,232
 2252               	.LVL228:
 2253               	.LBE357:
 2254               	.LBE356:
  53:../../protocol/lufa/LUFA-120730/LUFA/Drivers/USB/Core/AVR8/Template/Template_Endpoint_Control_W.c **** 		else if (Endpoint_IsSETUPReceived())
 2255               		.loc 4 53 0
 2256 0048 83FD      		sbrc r24,3
 2257 004a 00C0      		rjmp .L203
 2258               	.LBB358:
 2259               	.LBB359:
 419:../../protocol/lufa/LUFA-120730/LUFA/Drivers/USB/Core/AVR8/../AVR8/../AVR8/Endpoint_AVR8.h **** 				return ((UEINTX & (1 << RXOUTI)) ? true : false);
 2260               		.loc 2 419 0
 2261 004c 8091 E800 		lds r24,232
 2262               	.LBE359:
 2263               	.LBE358:
  55:../../protocol/lufa/LUFA-120730/LUFA/Drivers/USB/Core/AVR8/Template/Template_Endpoint_Control_W.c **** 		else if (Endpoint_IsOUTReceived())
 2264               		.loc 4 55 0
 2265 0050 82FF      		sbrs r24,2
 2266 0052 00C0      		rjmp .L189
 2267               	.L199:
 2268               	.LBE355:
 2269               	.LBB369:
 2270               	.LBB370:
 419:../../protocol/lufa/LUFA-120730/LUFA/Drivers/USB/Core/AVR8/../AVR8/../AVR8/Endpoint_AVR8.h **** 				return ((UEINTX & (1 << RXOUTI)) ? true : false);
 2271               		.loc 2 419 0 discriminator 1
 2272 0054 8091 E800 		lds r24,232
 2273               	.LBE370:
 2274               	.LBE369:
  75:../../protocol/lufa/LUFA-120730/LUFA/Drivers/USB/Core/AVR8/Template/Template_Endpoint_Control_W.c **** 	while (!(Endpoint_IsOUTReceived()))
 2275               		.loc 4 75 0 discriminator 1
 2276 0058 82FF      		sbrs r24,2
 2277 005a 00C0      		rjmp .L190
  85:../../protocol/lufa/LUFA-120730/LUFA/Drivers/USB/Core/AVR8/Template/Template_Endpoint_Control_W.c **** 	return ENDPOINT_RWCSTREAM_NoError;
 2278               		.loc 4 85 0
 2279 005c 80E0      		ldi r24,0
 2280 005e 0895      		ret
 2281               	.L189:
 2282               	.LBB371:
 2283               	.LBB360:
 2284               	.LBB361:
 407:../../protocol/lufa/LUFA-120730/LUFA/Drivers/USB/Core/AVR8/../AVR8/../AVR8/Endpoint_AVR8.h **** 				return ((UEINTX & (1 << TXINI)) ? true : false);
 2285               		.loc 2 407 0
 2286 0060 8091 E800 		lds r24,232
 2287               	.LBE361:
 2288               	.LBE360:
  58:../../protocol/lufa/LUFA-120730/LUFA/Drivers/USB/Core/AVR8/Template/Template_Endpoint_Control_W.c **** 		if (Endpoint_IsINReady())
 2289               		.loc 4 58 0
 2290 0064 80FF      		sbrs r24,0
 2291 0066 00C0      		rjmp .L192
 2292               	.LBB362:
 2293               	.LBB363:
 2294               	.LBB364:
 227:../../protocol/lufa/LUFA-120730/LUFA/Drivers/USB/Core/AVR8/../AVR8/../AVR8/Endpoint_AVR8.h **** 					return (((uint16_t)UEBCHX << 8) | UEBCLX);
 2295               		.loc 2 227 0
 2296 0068 8091 F300 		lds r24,243
 2297 006c 2091 F200 		lds r18,242
 2298 0070 30E0      		ldi r19,0
 2299 0072 382B      		or r19,r24
 2300               	.LVL229:
 2301               	.L193:
 2302 0074 8091 0000 		lds r24,USB_Device_ControlEndpointSize
 2303               	.LBE364:
 2304               	.LBE363:
  62:../../protocol/lufa/LUFA-120730/LUFA/Drivers/USB/Core/AVR8/Template/Template_Endpoint_Control_W.c **** 			while (Length && (BytesInEndpoint < USB_Device_ControlEndpointSize))
 2305               		.loc 4 62 0 discriminator 1
 2306 0078 6115      		cp r22,__zero_reg__
 2307 007a 7105      		cpc r23,__zero_reg__
 2308 007c 01F0      		breq .L194
  62:../../protocol/lufa/LUFA-120730/LUFA/Drivers/USB/Core/AVR8/Template/Template_Endpoint_Control_W.c **** 			while (Length && (BytesInEndpoint < USB_Device_ControlEndpointSize))
 2309               		.loc 4 62 0 is_stmt 0 discriminator 2
 2310 007e 482F      		mov r20,r24
 2311 0080 50E0      		ldi r21,0
 2312 0082 2417      		cp r18,r20
 2313 0084 3507      		cpc r19,r21
 2314 0086 00F4      		brsh .L194
  64:../../protocol/lufa/LUFA-120730/LUFA/Drivers/USB/Core/AVR8/Template/Template_Endpoint_Control_W.c **** 				TEMPLATE_TRANSFER_BYTE(DataStream);
 2315               		.loc 4 64 0 is_stmt 1
 2316 0088 8081      		ld r24,Z
 2317               	.LVL230:
 2318               	.LBB365:
 2319               	.LBB366:
 554:../../protocol/lufa/LUFA-120730/LUFA/Drivers/USB/Core/AVR8/../AVR8/../AVR8/Endpoint_AVR8.h **** 				UEDATX = Data;
 2320               		.loc 2 554 0
 2321 008a 8093 F100 		sts 241,r24
 2322               	.LBE366:
 2323               	.LBE365:
  65:../../protocol/lufa/LUFA-120730/LUFA/Drivers/USB/Core/AVR8/Template/Template_Endpoint_Control_W.c **** 				TEMPLATE_BUFFER_MOVE(DataStream, 1);
 2324               		.loc 4 65 0
 2325 008e 3197      		sbiw r30,1
 2326               	.LVL231:
  66:../../protocol/lufa/LUFA-120730/LUFA/Drivers/USB/Core/AVR8/Template/Template_Endpoint_Control_W.c **** 				Length--;
 2327               		.loc 4 66 0
 2328 0090 6150      		subi r22,1
 2329 0092 7109      		sbc r23,__zero_reg__
 2330               	.LVL232:
  67:../../protocol/lufa/LUFA-120730/LUFA/Drivers/USB/Core/AVR8/Template/Template_Endpoint_Control_W.c **** 				BytesInEndpoint++;
 2331               		.loc 4 67 0
 2332 0094 2F5F      		subi r18,-1
 2333 0096 3F4F      		sbci r19,-1
 2334               	.LVL233:
 2335 0098 00C0      		rjmp .L193
 2336               	.LVL234:
 2337               	.L194:
  70:../../protocol/lufa/LUFA-120730/LUFA/Drivers/USB/Core/AVR8/Template/Template_Endpoint_Control_W.c **** 			LastPacketFull = (BytesInEndpoint == USB_Device_ControlEndpointSize);
 2338               		.loc 4 70 0
 2339 009a 90E0      		ldi r25,0
 2340 009c 41E0      		ldi r20,lo8(1)
 2341 009e 2817      		cp r18,r24
 2342 00a0 3907      		cpc r19,r25
 2343 00a2 01F0      		breq .L196
 2344 00a4 40E0      		ldi r20,0
 2345               	.L196:
 2346               	.LVL235:
 2347               	.LBB367:
 2348               	.LBB368:
 456:../../protocol/lufa/LUFA-120730/LUFA/Drivers/USB/Core/AVR8/../AVR8/../AVR8/Endpoint_AVR8.h **** 					UEINTX &= ~((1 << TXINI) | (1 << FIFOCON));
 2349               		.loc 2 456 0
 2350 00a6 8091 E800 		lds r24,232
 2351 00aa 8E77      		andi r24,lo8(126)
 2352 00ac 8093 E800 		sts 232,r24
 2353 00b0 00C0      		rjmp .L192
 2354               	.LVL236:
 2355               	.L209:
 2356               	.LBE368:
 2357               	.LBE367:
 2358               	.LBE362:
 2359               	.LBE371:
  45:../../protocol/lufa/LUFA-120730/LUFA/Drivers/USB/Core/AVR8/Template/Template_Endpoint_Control_W.c **** 	while (Length || LastPacketFull)
 2360               		.loc 4 45 0 discriminator 2
 2361 00b2 4111      		cpse r20,__zero_reg__
 2362 00b4 00C0      		rjmp .L197
 2363 00b6 00C0      		rjmp .L199
 2364               	.L190:
 2365               	.LBB372:
  77:../../protocol/lufa/LUFA-120730/LUFA/Drivers/USB/Core/AVR8/Template/Template_Endpoint_Control_W.c **** 		uint8_t USB_DeviceState_LCL = USB_DeviceState;
 2366               		.loc 4 77 0
 2367 00b8 8091 0000 		lds r24,USB_DeviceState
 2368               	.LVL237:
  79:../../protocol/lufa/LUFA-120730/LUFA/Drivers/USB/Core/AVR8/Template/Template_Endpoint_Control_W.c **** 		if (USB_DeviceState_LCL == DEVICE_STATE_Unattached)
 2369               		.loc 4 79 0
 2370 00bc 8823      		tst r24
 2371 00be 01F0      		breq .L204
  81:../../protocol/lufa/LUFA-120730/LUFA/Drivers/USB/Core/AVR8/Template/Template_Endpoint_Control_W.c **** 		else if (USB_DeviceState_LCL == DEVICE_STATE_Suspended)
 2372               		.loc 4 81 0
 2373 00c0 8530      		cpi r24,lo8(5)
 2374 00c2 01F4      		brne .L199
 2375 00c4 00C0      		rjmp .L205
 2376               	.LVL238:
 2377               	.L203:
 2378               	.LBE372:
 2379               	.LBB373:
  54:../../protocol/lufa/LUFA-120730/LUFA/Drivers/USB/Core/AVR8/Template/Template_Endpoint_Control_W.c **** 		  return ENDPOINT_RWCSTREAM_HostAborted;
 2380               		.loc 4 54 0
 2381 00c6 81E0      		ldi r24,lo8(1)
 2382 00c8 0895      		ret
 2383               	.L204:
  50:../../protocol/lufa/LUFA-120730/LUFA/Drivers/USB/Core/AVR8/Template/Template_Endpoint_Control_W.c **** 		  return ENDPOINT_RWCSTREAM_DeviceDisconnected;
 2384               		.loc 4 50 0
 2385 00ca 82E0      		ldi r24,lo8(2)
 2386 00cc 0895      		ret
 2387               	.L205:
  52:../../protocol/lufa/LUFA-120730/LUFA/Drivers/USB/Core/AVR8/Template/Template_Endpoint_Control_W.c **** 		  return ENDPOINT_RWCSTREAM_BusSuspended;
 2388               		.loc 4 52 0
 2389 00ce 83E0      		ldi r24,lo8(3)
 2390               	.LBE373:
 2391               		.loc 4 86 0
 2392 00d0 0895      		ret
 2393               		.cfi_endproc
 2394               	.LFE97:
 2396               		.section	.text.Endpoint_Read_Control_Stream_LE,"ax",@progbits
 2397               	.global	Endpoint_Read_Control_Stream_LE
 2399               	Endpoint_Read_Control_Stream_LE:
 2400               	.LFB98:
 2401               		.file 5 "../../protocol/lufa/LUFA-120730/LUFA/Drivers/USB/Core/AVR8/Template/Template_Endpoint_Con
   1:../../protocol/lufa/LUFA-120730/LUFA/Drivers/USB/Core/AVR8/Template/Template_Endpoint_Control_R.c **** /*
   2:../../protocol/lufa/LUFA-120730/LUFA/Drivers/USB/Core/AVR8/Template/Template_Endpoint_Control_R.c ****              LUFA Library
   3:../../protocol/lufa/LUFA-120730/LUFA/Drivers/USB/Core/AVR8/Template/Template_Endpoint_Control_R.c ****      Copyright (C) Dean Camera, 2012.
   4:../../protocol/lufa/LUFA-120730/LUFA/Drivers/USB/Core/AVR8/Template/Template_Endpoint_Control_R.c **** 
   5:../../protocol/lufa/LUFA-120730/LUFA/Drivers/USB/Core/AVR8/Template/Template_Endpoint_Control_R.c ****   dean [at] fourwalledcubicle [dot] com
   6:../../protocol/lufa/LUFA-120730/LUFA/Drivers/USB/Core/AVR8/Template/Template_Endpoint_Control_R.c ****            www.lufa-lib.org
   7:../../protocol/lufa/LUFA-120730/LUFA/Drivers/USB/Core/AVR8/Template/Template_Endpoint_Control_R.c **** */
   8:../../protocol/lufa/LUFA-120730/LUFA/Drivers/USB/Core/AVR8/Template/Template_Endpoint_Control_R.c **** 
   9:../../protocol/lufa/LUFA-120730/LUFA/Drivers/USB/Core/AVR8/Template/Template_Endpoint_Control_R.c **** /*
  10:../../protocol/lufa/LUFA-120730/LUFA/Drivers/USB/Core/AVR8/Template/Template_Endpoint_Control_R.c ****   Copyright 2012  Dean Camera (dean [at] fourwalledcubicle [dot] com)
  11:../../protocol/lufa/LUFA-120730/LUFA/Drivers/USB/Core/AVR8/Template/Template_Endpoint_Control_R.c **** 
  12:../../protocol/lufa/LUFA-120730/LUFA/Drivers/USB/Core/AVR8/Template/Template_Endpoint_Control_R.c ****   Permission to use, copy, modify, distribute, and sell this
  13:../../protocol/lufa/LUFA-120730/LUFA/Drivers/USB/Core/AVR8/Template/Template_Endpoint_Control_R.c ****   software and its documentation for any purpose is hereby granted
  14:../../protocol/lufa/LUFA-120730/LUFA/Drivers/USB/Core/AVR8/Template/Template_Endpoint_Control_R.c ****   without fee, provided that the above copyright notice appear in
  15:../../protocol/lufa/LUFA-120730/LUFA/Drivers/USB/Core/AVR8/Template/Template_Endpoint_Control_R.c ****   all copies and that both that the copyright notice and this
  16:../../protocol/lufa/LUFA-120730/LUFA/Drivers/USB/Core/AVR8/Template/Template_Endpoint_Control_R.c ****   permission notice and warranty disclaimer appear in supporting
  17:../../protocol/lufa/LUFA-120730/LUFA/Drivers/USB/Core/AVR8/Template/Template_Endpoint_Control_R.c ****   documentation, and that the name of the author not be used in
  18:../../protocol/lufa/LUFA-120730/LUFA/Drivers/USB/Core/AVR8/Template/Template_Endpoint_Control_R.c ****   advertising or publicity pertaining to distribution of the
  19:../../protocol/lufa/LUFA-120730/LUFA/Drivers/USB/Core/AVR8/Template/Template_Endpoint_Control_R.c ****   software without specific, written prior permission.
  20:../../protocol/lufa/LUFA-120730/LUFA/Drivers/USB/Core/AVR8/Template/Template_Endpoint_Control_R.c **** 
  21:../../protocol/lufa/LUFA-120730/LUFA/Drivers/USB/Core/AVR8/Template/Template_Endpoint_Control_R.c ****   The author disclaim all warranties with regard to this
  22:../../protocol/lufa/LUFA-120730/LUFA/Drivers/USB/Core/AVR8/Template/Template_Endpoint_Control_R.c ****   software, including all implied warranties of merchantability
  23:../../protocol/lufa/LUFA-120730/LUFA/Drivers/USB/Core/AVR8/Template/Template_Endpoint_Control_R.c ****   and fitness.  In no event shall the author be liable for any
  24:../../protocol/lufa/LUFA-120730/LUFA/Drivers/USB/Core/AVR8/Template/Template_Endpoint_Control_R.c ****   special, indirect or consequential damages or any damages
  25:../../protocol/lufa/LUFA-120730/LUFA/Drivers/USB/Core/AVR8/Template/Template_Endpoint_Control_R.c ****   whatsoever resulting from loss of use, data or profits, whether
  26:../../protocol/lufa/LUFA-120730/LUFA/Drivers/USB/Core/AVR8/Template/Template_Endpoint_Control_R.c ****   in an action of contract, negligence or other tortious action,
  27:../../protocol/lufa/LUFA-120730/LUFA/Drivers/USB/Core/AVR8/Template/Template_Endpoint_Control_R.c ****   arising out of or in connection with the use or performance of
  28:../../protocol/lufa/LUFA-120730/LUFA/Drivers/USB/Core/AVR8/Template/Template_Endpoint_Control_R.c ****   this software.
  29:../../protocol/lufa/LUFA-120730/LUFA/Drivers/USB/Core/AVR8/Template/Template_Endpoint_Control_R.c **** */
  30:../../protocol/lufa/LUFA-120730/LUFA/Drivers/USB/Core/AVR8/Template/Template_Endpoint_Control_R.c **** 
  31:../../protocol/lufa/LUFA-120730/LUFA/Drivers/USB/Core/AVR8/Template/Template_Endpoint_Control_R.c **** #if defined(TEMPLATE_FUNC_NAME)
  32:../../protocol/lufa/LUFA-120730/LUFA/Drivers/USB/Core/AVR8/Template/Template_Endpoint_Control_R.c **** 
  33:../../protocol/lufa/LUFA-120730/LUFA/Drivers/USB/Core/AVR8/Template/Template_Endpoint_Control_R.c **** // cppcheck-suppress unusedFunction
  34:../../protocol/lufa/LUFA-120730/LUFA/Drivers/USB/Core/AVR8/Template/Template_Endpoint_Control_R.c **** uint8_t TEMPLATE_FUNC_NAME (void* const Buffer,
  35:../../protocol/lufa/LUFA-120730/LUFA/Drivers/USB/Core/AVR8/Template/Template_Endpoint_Control_R.c ****                             uint16_t Length)
  36:../../protocol/lufa/LUFA-120730/LUFA/Drivers/USB/Core/AVR8/Template/Template_Endpoint_Control_R.c **** {
 2402               		.loc 5 36 0
 2403               		.cfi_startproc
 2404               	.LVL239:
 2405               	/* prologue: function */
 2406               	/* frame size = 0 */
 2407               	/* stack size = 0 */
 2408               	.L__stack_usage = 0
  37:../../protocol/lufa/LUFA-120730/LUFA/Drivers/USB/Core/AVR8/Template/Template_Endpoint_Control_R.c **** 	uint8_t* DataStream = ((uint8_t*)Buffer + TEMPLATE_BUFFER_OFFSET(Length));
  38:../../protocol/lufa/LUFA-120730/LUFA/Drivers/USB/Core/AVR8/Template/Template_Endpoint_Control_R.c **** 
  39:../../protocol/lufa/LUFA-120730/LUFA/Drivers/USB/Core/AVR8/Template/Template_Endpoint_Control_R.c **** 	if (!(Length))
 2409               		.loc 5 39 0
 2410 0000 6115      		cp r22,__zero_reg__
 2411 0002 7105      		cpc r23,__zero_reg__
 2412 0004 01F4      		brne .L212
 2413               	.LVL240:
 2414               	.L217:
 2415               	.LBB374:
 2416               	.LBB375:
 2417               	.LBB376:
 471:../../protocol/lufa/LUFA-120730/LUFA/Drivers/USB/Core/AVR8/../AVR8/../AVR8/Endpoint_AVR8.h **** 					UEINTX &= ~((1 << RXOUTI) | (1 << FIFOCON));
 2418               		.loc 2 471 0
 2419 0006 2091 E800 		lds r18,232
 2420 000a 2B77      		andi r18,lo8(123)
 2421 000c 2093 E800 		sts 232,r18
 2422               	.L212:
 2423               	.LVL241:
 2424               	.LBE376:
 2425               	.LBE375:
 2426               	.LBE374:
  40:../../protocol/lufa/LUFA-120730/LUFA/Drivers/USB/Core/AVR8/Template/Template_Endpoint_Control_R.c **** 	  Endpoint_ClearOUT();
  41:../../protocol/lufa/LUFA-120730/LUFA/Drivers/USB/Core/AVR8/Template/Template_Endpoint_Control_R.c **** 
  42:../../protocol/lufa/LUFA-120730/LUFA/Drivers/USB/Core/AVR8/Template/Template_Endpoint_Control_R.c **** 	while (Length)
 2427               		.loc 5 42 0 discriminator 1
 2428 0010 6115      		cp r22,__zero_reg__
 2429 0012 7105      		cpc r23,__zero_reg__
 2430 0014 01F0      		breq .L220
 2431               	.LVL242:
 2432               	.L215:
 2433               	.LBB385:
  43:../../protocol/lufa/LUFA-120730/LUFA/Drivers/USB/Core/AVR8/Template/Template_Endpoint_Control_R.c **** 	{
  44:../../protocol/lufa/LUFA-120730/LUFA/Drivers/USB/Core/AVR8/Template/Template_Endpoint_Control_R.c **** 		uint8_t USB_DeviceState_LCL = USB_DeviceState;
 2434               		.loc 5 44 0
 2435 0016 2091 0000 		lds r18,USB_DeviceState
 2436               	.LVL243:
  45:../../protocol/lufa/LUFA-120730/LUFA/Drivers/USB/Core/AVR8/Template/Template_Endpoint_Control_R.c **** 
  46:../../protocol/lufa/LUFA-120730/LUFA/Drivers/USB/Core/AVR8/Template/Template_Endpoint_Control_R.c **** 		if (USB_DeviceState_LCL == DEVICE_STATE_Unattached)
 2437               		.loc 5 46 0
 2438 001a 2223      		tst r18
 2439 001c 01F0      		breq .L225
  47:../../protocol/lufa/LUFA-120730/LUFA/Drivers/USB/Core/AVR8/Template/Template_Endpoint_Control_R.c **** 		  return ENDPOINT_RWCSTREAM_DeviceDisconnected;
  48:../../protocol/lufa/LUFA-120730/LUFA/Drivers/USB/Core/AVR8/Template/Template_Endpoint_Control_R.c **** 		else if (USB_DeviceState_LCL == DEVICE_STATE_Suspended)
 2440               		.loc 5 48 0
 2441 001e 2530      		cpi r18,lo8(5)
 2442 0020 01F0      		breq .L226
 2443               	.LBB377:
 2444               	.LBB378:
 431:../../protocol/lufa/LUFA-120730/LUFA/Drivers/USB/Core/AVR8/../AVR8/../AVR8/Endpoint_AVR8.h **** 				return ((UEINTX & (1 << RXSTPI)) ? true : false);
 2445               		.loc 2 431 0
 2446 0022 2091 E800 		lds r18,232
 2447               	.LVL244:
 2448               	.LBE378:
 2449               	.LBE377:
  49:../../protocol/lufa/LUFA-120730/LUFA/Drivers/USB/Core/AVR8/Template/Template_Endpoint_Control_R.c **** 		  return ENDPOINT_RWCSTREAM_BusSuspended;
  50:../../protocol/lufa/LUFA-120730/LUFA/Drivers/USB/Core/AVR8/Template/Template_Endpoint_Control_R.c **** 		else if (Endpoint_IsSETUPReceived())
 2450               		.loc 5 50 0
 2451 0026 23FD      		sbrc r18,3
 2452 0028 00C0      		rjmp .L223
 2453               	.LBB379:
 2454               	.LBB380:
 419:../../protocol/lufa/LUFA-120730/LUFA/Drivers/USB/Core/AVR8/../AVR8/../AVR8/Endpoint_AVR8.h **** 				return ((UEINTX & (1 << RXOUTI)) ? true : false);
 2455               		.loc 2 419 0
 2456 002a 2091 E800 		lds r18,232
 2457               	.LBE380:
 2458               	.LBE379:
  51:../../protocol/lufa/LUFA-120730/LUFA/Drivers/USB/Core/AVR8/Template/Template_Endpoint_Control_R.c **** 		  return ENDPOINT_RWCSTREAM_HostAborted;
  52:../../protocol/lufa/LUFA-120730/LUFA/Drivers/USB/Core/AVR8/Template/Template_Endpoint_Control_R.c **** 
  53:../../protocol/lufa/LUFA-120730/LUFA/Drivers/USB/Core/AVR8/Template/Template_Endpoint_Control_R.c **** 		if (Endpoint_IsOUTReceived())
 2459               		.loc 5 53 0
 2460 002e 22FF      		sbrs r18,2
 2461 0030 00C0      		rjmp .L215
 2462 0032 FC01      		movw r30,r24
 2463               	.LVL245:
 2464               	.L216:
 2465 0034 CF01      		movw r24,r30
 2466               	.LVL246:
 2467               	.LBB381:
 2468               	.LBB382:
 227:../../protocol/lufa/LUFA-120730/LUFA/Drivers/USB/Core/AVR8/../AVR8/../AVR8/Endpoint_AVR8.h **** 					return (((uint16_t)UEBCHX << 8) | UEBCLX);
 2469               		.loc 2 227 0
 2470 0036 4091 F300 		lds r20,243
 2471 003a 2091 F200 		lds r18,242
 2472 003e 30E0      		ldi r19,0
 2473 0040 342B      		or r19,r20
 2474               	.LBE382:
 2475               	.LBE381:
  54:../../protocol/lufa/LUFA-120730/LUFA/Drivers/USB/Core/AVR8/Template/Template_Endpoint_Control_R.c **** 		{
  55:../../protocol/lufa/LUFA-120730/LUFA/Drivers/USB/Core/AVR8/Template/Template_Endpoint_Control_R.c **** 			while (Length && Endpoint_BytesInEndpoint())
 2476               		.loc 5 55 0
 2477 0042 232B      		or r18,r19
 2478 0044 01F0      		breq .L217
 2479               	.LBB383:
 2480               	.LBB384:
 542:../../protocol/lufa/LUFA-120730/LUFA/Drivers/USB/Core/AVR8/../AVR8/../AVR8/Endpoint_AVR8.h **** 				return UEDATX;
 2481               		.loc 2 542 0
 2482 0046 8091 F100 		lds r24,241
 2483               	.LVL247:
 2484               	.LBE384:
 2485               	.LBE383:
  56:../../protocol/lufa/LUFA-120730/LUFA/Drivers/USB/Core/AVR8/Template/Template_Endpoint_Control_R.c **** 			{
  57:../../protocol/lufa/LUFA-120730/LUFA/Drivers/USB/Core/AVR8/Template/Template_Endpoint_Control_R.c **** 				TEMPLATE_TRANSFER_BYTE(DataStream);
 2486               		.loc 5 57 0
 2487 004a 8193      		st Z+,r24
 2488               	.LVL248:
  58:../../protocol/lufa/LUFA-120730/LUFA/Drivers/USB/Core/AVR8/Template/Template_Endpoint_Control_R.c **** 				TEMPLATE_BUFFER_MOVE(DataStream, 1);
 2489               		.loc 5 58 0
 2490 004c CF01      		movw r24,r30
 2491               	.LVL249:
  59:../../protocol/lufa/LUFA-120730/LUFA/Drivers/USB/Core/AVR8/Template/Template_Endpoint_Control_R.c **** 				Length--;
 2492               		.loc 5 59 0
 2493 004e 6150      		subi r22,1
 2494 0050 7109      		sbc r23,__zero_reg__
 2495               	.LVL250:
  55:../../protocol/lufa/LUFA-120730/LUFA/Drivers/USB/Core/AVR8/Template/Template_Endpoint_Control_R.c **** 			while (Length && Endpoint_BytesInEndpoint())
 2496               		.loc 5 55 0
 2497 0052 6115      		cp r22,__zero_reg__
 2498 0054 7105      		cpc r23,__zero_reg__
 2499 0056 01F4      		brne .L216
 2500 0058 00C0      		rjmp .L217
 2501               	.LVL251:
 2502               	.L230:
 2503               	.LBE385:
 2504               	.LBB386:
  60:../../protocol/lufa/LUFA-120730/LUFA/Drivers/USB/Core/AVR8/Template/Template_Endpoint_Control_R.c **** 			}
  61:../../protocol/lufa/LUFA-120730/LUFA/Drivers/USB/Core/AVR8/Template/Template_Endpoint_Control_R.c **** 
  62:../../protocol/lufa/LUFA-120730/LUFA/Drivers/USB/Core/AVR8/Template/Template_Endpoint_Control_R.c **** 			Endpoint_ClearOUT();
  63:../../protocol/lufa/LUFA-120730/LUFA/Drivers/USB/Core/AVR8/Template/Template_Endpoint_Control_R.c **** 		}
  64:../../protocol/lufa/LUFA-120730/LUFA/Drivers/USB/Core/AVR8/Template/Template_Endpoint_Control_R.c **** 	}
  65:../../protocol/lufa/LUFA-120730/LUFA/Drivers/USB/Core/AVR8/Template/Template_Endpoint_Control_R.c **** 
  66:../../protocol/lufa/LUFA-120730/LUFA/Drivers/USB/Core/AVR8/Template/Template_Endpoint_Control_R.c **** 	while (!(Endpoint_IsINReady()))
  67:../../protocol/lufa/LUFA-120730/LUFA/Drivers/USB/Core/AVR8/Template/Template_Endpoint_Control_R.c **** 	{
  68:../../protocol/lufa/LUFA-120730/LUFA/Drivers/USB/Core/AVR8/Template/Template_Endpoint_Control_R.c **** 		uint8_t USB_DeviceState_LCL = USB_DeviceState;
 2505               		.loc 5 68 0
 2506 005a 8091 0000 		lds r24,USB_DeviceState
 2507               	.LVL252:
  69:../../protocol/lufa/LUFA-120730/LUFA/Drivers/USB/Core/AVR8/Template/Template_Endpoint_Control_R.c **** 
  70:../../protocol/lufa/LUFA-120730/LUFA/Drivers/USB/Core/AVR8/Template/Template_Endpoint_Control_R.c **** 		if (USB_DeviceState_LCL == DEVICE_STATE_Unattached)
 2508               		.loc 5 70 0
 2509 005e 8823      		tst r24
 2510 0060 01F0      		breq .L225
  71:../../protocol/lufa/LUFA-120730/LUFA/Drivers/USB/Core/AVR8/Template/Template_Endpoint_Control_R.c **** 		  return ENDPOINT_RWCSTREAM_DeviceDisconnected;
  72:../../protocol/lufa/LUFA-120730/LUFA/Drivers/USB/Core/AVR8/Template/Template_Endpoint_Control_R.c **** 		else if (USB_DeviceState_LCL == DEVICE_STATE_Suspended)
 2511               		.loc 5 72 0
 2512 0062 8530      		cpi r24,lo8(5)
 2513 0064 01F0      		breq .L226
 2514               	.LVL253:
 2515               	.L220:
 2516               	.LBE386:
 2517               	.LBB387:
 2518               	.LBB388:
 407:../../protocol/lufa/LUFA-120730/LUFA/Drivers/USB/Core/AVR8/../AVR8/../AVR8/Endpoint_AVR8.h **** 				return ((UEINTX & (1 << TXINI)) ? true : false);
 2519               		.loc 2 407 0
 2520 0066 8091 E800 		lds r24,232
