   1               		.file	"host.c"
   2               	__SP_H__ = 0x3e
   3               	__SP_L__ = 0x3d
   4               	__SREG__ = 0x3f
   5               	__tmp_reg__ = 0
   6               	__zero_reg__ = 1
   7               		.text
   8               	.Ltext0:
   9               		.cfi_sections	.debug_frame
  10               		.section	.text.host_set_driver,"ax",@progbits
  11               	.global	host_set_driver
  13               	host_set_driver:
  14               	.LFB99:
  15               		.file 1 "../../common/host.c"
   1:../../common/host.c **** /*
   2:../../common/host.c **** Copyright 2011,2012 Jun Wako <wakojun@gmail.com>
   3:../../common/host.c **** 
   4:../../common/host.c **** This program is free software: you can redistribute it and/or modify
   5:../../common/host.c **** it under the terms of the GNU General Public License as published by
   6:../../common/host.c **** the Free Software Foundation, either version 2 of the License, or
   7:../../common/host.c **** (at your option) any later version.
   8:../../common/host.c **** 
   9:../../common/host.c **** This program is distributed in the hope that it will be useful,
  10:../../common/host.c **** but WITHOUT ANY WARRANTY; without even the implied warranty of
  11:../../common/host.c **** MERCHANTABILITY or FITNESS FOR A PARTICULAR PURPOSE.  See the
  12:../../common/host.c **** GNU General Public License for more details.
  13:../../common/host.c **** 
  14:../../common/host.c **** You should have received a copy of the GNU General Public License
  15:../../common/host.c **** along with this program.  If not, see <http://www.gnu.org/licenses/>.
  16:../../common/host.c **** */
  17:../../common/host.c **** 
  18:../../common/host.c **** #include <stdint.h>
  19:../../common/host.c **** #include <avr/interrupt.h>
  20:../../common/host.c **** #include "keycode.h"
  21:../../common/host.c **** #include "host.h"
  22:../../common/host.c **** #include "util.h"
  23:../../common/host.c **** #include "debug.h"
  24:../../common/host.c **** 
  25:../../common/host.c **** 
  26:../../common/host.c **** #ifdef NKRO_ENABLE
  27:../../common/host.c **** bool keyboard_nkro = false;
  28:../../common/host.c **** #endif
  29:../../common/host.c **** 
  30:../../common/host.c **** static host_driver_t *driver;
  31:../../common/host.c **** static uint16_t last_system_report = 0;
  32:../../common/host.c **** static uint16_t last_consumer_report = 0;
  33:../../common/host.c **** 
  34:../../common/host.c **** 
  35:../../common/host.c **** void host_set_driver(host_driver_t *d)
  36:../../common/host.c **** {
  16               		.loc 1 36 0
  17               		.cfi_startproc
  18               	.LVL0:
  19               	/* prologue: function */
  20               	/* frame size = 0 */
  21               	/* stack size = 0 */
  22               	.L__stack_usage = 0
  37:../../common/host.c ****     driver = d;
  23               		.loc 1 37 0
  24 0000 9093 0000 		sts driver+1,r25
  25 0004 8093 0000 		sts driver,r24
  26 0008 0895      		ret
  27               		.cfi_endproc
  28               	.LFE99:
  30               		.section	.text.host_get_driver,"ax",@progbits
  31               	.global	host_get_driver
  33               	host_get_driver:
  34               	.LFB100:
  38:../../common/host.c **** }
  39:../../common/host.c **** 
  40:../../common/host.c **** host_driver_t *host_get_driver(void)
  41:../../common/host.c **** {
  35               		.loc 1 41 0
  36               		.cfi_startproc
  37               	/* prologue: function */
  38               	/* frame size = 0 */
  39               	/* stack size = 0 */
  40               	.L__stack_usage = 0
  42:../../common/host.c ****     return driver;
  43:../../common/host.c **** }
  41               		.loc 1 43 0
  42 0000 8091 0000 		lds r24,driver
  43 0004 9091 0000 		lds r25,driver+1
  44 0008 0895      		ret
  45               		.cfi_endproc
  46               	.LFE100:
  48               		.section	.text.host_keyboard_leds,"ax",@progbits
  49               	.global	host_keyboard_leds
  51               	host_keyboard_leds:
  52               	.LFB101:
  44:../../common/host.c **** 
  45:../../common/host.c **** uint8_t host_keyboard_leds(void)
  46:../../common/host.c **** {
  53               		.loc 1 46 0
  54               		.cfi_startproc
  55               	/* prologue: function */
  56               	/* frame size = 0 */
  57               	/* stack size = 0 */
  58               	.L__stack_usage = 0
  47:../../common/host.c ****     if (!driver) return 0;
  59               		.loc 1 47 0
  60 0000 E091 0000 		lds r30,driver
  61 0004 F091 0000 		lds r31,driver+1
  62 0008 3097      		sbiw r30,0
  63 000a 01F0      		breq .L4
  48:../../common/host.c ****     return (*driver->keyboard_leds)();
  64               		.loc 1 48 0
  65 000c 0190      		ld __tmp_reg__,Z+
  66 000e F081      		ld r31,Z
  67 0010 E02D      		mov r30,__tmp_reg__
  68 0012 0994      		ijmp
  69               	.LVL1:
  70               	.L4:
  49:../../common/host.c **** }
  71               		.loc 1 49 0
  72 0014 80E0      		ldi r24,0
  73 0016 0895      		ret
  74               		.cfi_endproc
  75               	.LFE101:
  77               		.section	.text.host_keyboard_send,"ax",@progbits
  78               	.global	host_keyboard_send
  80               	host_keyboard_send:
  81               	.LFB102:
  50:../../common/host.c **** /* send report */
  51:../../common/host.c **** void host_keyboard_send(report_keyboard_t *report)
  52:../../common/host.c **** {
  82               		.loc 1 52 0
  83               		.cfi_startproc
  84               	.LVL2:
  85 0000 EF92      		push r14
  86               	.LCFI0:
  87               		.cfi_def_cfa_offset 3
  88               		.cfi_offset 14, -2
  89 0002 FF92      		push r15
  90               	.LCFI1:
  91               		.cfi_def_cfa_offset 4
  92               		.cfi_offset 15, -3
  93 0004 1F93      		push r17
  94               	.LCFI2:
  95               		.cfi_def_cfa_offset 5
  96               		.cfi_offset 17, -4
  97 0006 CF93      		push r28
  98               	.LCFI3:
  99               		.cfi_def_cfa_offset 6
 100               		.cfi_offset 28, -5
 101 0008 DF93      		push r29
 102               	.LCFI4:
 103               		.cfi_def_cfa_offset 7
 104               		.cfi_offset 29, -6
 105               	/* prologue: function */
 106               	/* frame size = 0 */
 107               	/* stack size = 5 */
 108               	.L__stack_usage = 5
 109 000a F82E      		mov r15,r24
 110 000c 192F      		mov r17,r25
  53:../../common/host.c ****     if (!driver) return;
 111               		.loc 1 53 0
 112 000e E091 0000 		lds r30,driver
 113 0012 F091 0000 		lds r31,driver+1
 114 0016 3097      		sbiw r30,0
 115 0018 01F0      		breq .L6
  54:../../common/host.c ****     (*driver->send_keyboard)(report);
 116               		.loc 1 54 0
 117 001a 0280      		ldd __tmp_reg__,Z+2
 118 001c F381      		ldd r31,Z+3
 119 001e E02D      		mov r30,__tmp_reg__
 120 0020 0995      		icall
 121               	.LVL3:
  55:../../common/host.c **** 
  56:../../common/host.c ****     if (debug_keyboard) {
 122               		.loc 1 56 0
 123 0022 8091 0000 		lds r24,debug_config
 124 0026 82FF      		sbrs r24,2
 125 0028 00C0      		rjmp .L6
  57:../../common/host.c ****         dprint("keyboard_report: ");
 126               		.loc 1 57 0
 127 002a 80FF      		sbrs r24,0
 128 002c 00C0      		rjmp .L10
 129               		.loc 1 57 0 is_stmt 0 discriminator 1
 130 002e 80E0      		ldi r24,lo8(__c.4519)
 131 0030 90E0      		ldi r25,hi8(__c.4519)
 132 0032 0E94 0000 		call xputs
 133               	.LVL4:
 134               	.L10:
 135 0036 CF2D      		mov r28,r15
 136 0038 D12F      		mov r29,r17
  52:../../common/host.c ****     if (!driver) return;
 137               		.loc 1 52 0 is_stmt 1 discriminator 1
 138 003a 10E1      		ldi r17,lo8(16)
 139               	.LBB2:
  58:../../common/host.c ****         for (uint8_t i = 0; i < REPORT_SIZE; i++) {
  59:../../common/host.c ****             dprintf("%02X ", report->raw[i]);
 140               		.loc 1 59 0 discriminator 1
 141 003c 80E0      		ldi r24,lo8(__c.4522)
 142 003e E82E      		mov r14,r24
 143 0040 80E0      		ldi r24,hi8(__c.4522)
 144 0042 F82E      		mov r15,r24
 145               	.LVL5:
 146               	.L12:
 147               		.loc 1 59 0 is_stmt 0
 148 0044 8091 0000 		lds r24,debug_config
 149 0048 80FF      		sbrs r24,0
 150 004a 00C0      		rjmp .L11
 151               		.loc 1 59 0 discriminator 1
 152 004c 8881      		ld r24,Y
 153 004e 1F92      		push __zero_reg__
 154               	.LCFI5:
 155               		.cfi_def_cfa_offset 8
 156 0050 8F93      		push r24
 157               	.LCFI6:
 158               		.cfi_def_cfa_offset 9
 159 0052 FF92      		push r15
 160               	.LCFI7:
 161               		.cfi_def_cfa_offset 10
 162 0054 EF92      		push r14
 163               	.LCFI8:
 164               		.cfi_def_cfa_offset 11
 165 0056 0E94 0000 		call __xprintf
 166               	.LVL6:
 167 005a 0F90      		pop __tmp_reg__
 168 005c 0F90      		pop __tmp_reg__
 169 005e 0F90      		pop __tmp_reg__
 170 0060 0F90      		pop __tmp_reg__
 171               	.LCFI9:
 172               		.cfi_def_cfa_offset 7
 173               	.L11:
 174               	.LVL7:
 175 0062 1150      		subi r17,lo8(-(-1))
 176 0064 2196      		adiw r28,1
 177               	.LVL8:
  58:../../common/host.c ****         for (uint8_t i = 0; i < REPORT_SIZE; i++) {
 178               		.loc 1 58 0 is_stmt 1 discriminator 2
 179 0066 1111      		cpse r17,__zero_reg__
 180 0068 00C0      		rjmp .L12
 181               	.LBE2:
  60:../../common/host.c ****         }
  61:../../common/host.c ****         dprint("\n");
 182               		.loc 1 61 0
 183 006a 8091 0000 		lds r24,debug_config
 184 006e 80FF      		sbrs r24,0
 185 0070 00C0      		rjmp .L6
 186               		.loc 1 61 0 is_stmt 0 discriminator 1
 187 0072 80E0      		ldi r24,lo8(__c.4527)
 188 0074 90E0      		ldi r25,hi8(__c.4527)
 189               	/* epilogue start */
  62:../../common/host.c ****     }
  63:../../common/host.c **** }
 190               		.loc 1 63 0 is_stmt 1 discriminator 1
 191 0076 DF91      		pop r29
 192 0078 CF91      		pop r28
 193               	.LVL9:
 194 007a 1F91      		pop r17
 195 007c FF90      		pop r15
 196 007e EF90      		pop r14
  61:../../common/host.c ****     }
 197               		.loc 1 61 0 discriminator 1
 198 0080 0C94 0000 		jmp xputs
 199               	.LVL10:
 200               	.L6:
 201               	/* epilogue start */
 202               		.loc 1 63 0
 203 0084 DF91      		pop r29
 204 0086 CF91      		pop r28
 205 0088 1F91      		pop r17
 206 008a FF90      		pop r15
 207 008c EF90      		pop r14
 208 008e 0895      		ret
 209               		.cfi_endproc
 210               	.LFE102:
 212               		.section	.text.host_mouse_send,"ax",@progbits
 213               	.global	host_mouse_send
 215               	host_mouse_send:
 216               	.LFB103:
  64:../../common/host.c **** 
  65:../../common/host.c **** void host_mouse_send(report_mouse_t *report)
  66:../../common/host.c **** {
 217               		.loc 1 66 0
 218               		.cfi_startproc
 219               	.LVL11:
 220               	/* prologue: function */
 221               	/* frame size = 0 */
 222               	/* stack size = 0 */
 223               	.L__stack_usage = 0
  67:../../common/host.c ****     if (!driver) return;
 224               		.loc 1 67 0
 225 0000 E091 0000 		lds r30,driver
 226 0004 F091 0000 		lds r31,driver+1
 227 0008 3097      		sbiw r30,0
 228 000a 01F0      		breq .L26
  68:../../common/host.c ****     (*driver->send_mouse)(report);
 229               		.loc 1 68 0
 230 000c 0480      		ldd __tmp_reg__,Z+4
 231 000e F581      		ldd r31,Z+5
 232 0010 E02D      		mov r30,__tmp_reg__
 233 0012 0994      		ijmp
 234               	.LVL12:
 235               	.L26:
 236 0014 0895      		ret
 237               		.cfi_endproc
 238               	.LFE103:
 240               		.section	.text.host_system_send,"ax",@progbits
 241               	.global	host_system_send
 243               	host_system_send:
 244               	.LFB104:
  69:../../common/host.c **** }
  70:../../common/host.c **** 
  71:../../common/host.c **** void host_system_send(uint16_t report)
  72:../../common/host.c **** {
 245               		.loc 1 72 0
 246               		.cfi_startproc
 247               	.LVL13:
 248               	/* prologue: function */
 249               	/* frame size = 0 */
 250               	/* stack size = 0 */
 251               	.L__stack_usage = 0
  73:../../common/host.c ****     if (report == last_system_report) return;
 252               		.loc 1 73 0
 253 0000 2091 0000 		lds r18,last_system_report
 254 0004 3091 0000 		lds r19,last_system_report+1
 255 0008 2817      		cp r18,r24
 256 000a 3907      		cpc r19,r25
 257 000c 01F0      		breq .L28
  74:../../common/host.c ****     last_system_report = report;
 258               		.loc 1 74 0
 259 000e 9093 0000 		sts last_system_report+1,r25
 260 0012 8093 0000 		sts last_system_report,r24
  75:../../common/host.c **** 
  76:../../common/host.c ****     if (!driver) return;
 261               		.loc 1 76 0
 262 0016 E091 0000 		lds r30,driver
 263 001a F091 0000 		lds r31,driver+1
 264 001e 3097      		sbiw r30,0
 265 0020 01F0      		breq .L28
  77:../../common/host.c ****     (*driver->send_system)(report);
 266               		.loc 1 77 0
 267 0022 0680      		ldd __tmp_reg__,Z+6
 268 0024 F781      		ldd r31,Z+7
 269 0026 E02D      		mov r30,__tmp_reg__
 270 0028 0994      		ijmp
 271               	.LVL14:
 272               	.L28:
 273 002a 0895      		ret
 274               		.cfi_endproc
 275               	.LFE104:
 277               		.section	.text.host_consumer_send,"ax",@progbits
 278               	.global	host_consumer_send
 280               	host_consumer_send:
 281               	.LFB105:
  78:../../common/host.c **** }
  79:../../common/host.c **** 
  80:../../common/host.c **** void host_consumer_send(uint16_t report)
  81:../../common/host.c **** {
 282               		.loc 1 81 0
 283               		.cfi_startproc
 284               	.LVL15:
 285               	/* prologue: function */
 286               	/* frame size = 0 */
 287               	/* stack size = 0 */
 288               	.L__stack_usage = 0
  82:../../common/host.c ****     if (report == last_consumer_report) return;
 289               		.loc 1 82 0
 290 0000 2091 0000 		lds r18,last_consumer_report
 291 0004 3091 0000 		lds r19,last_consumer_report+1
 292 0008 2817      		cp r18,r24
 293 000a 3907      		cpc r19,r25
 294 000c 01F0      		breq .L35
  83:../../common/host.c ****     last_consumer_report = report;
 295               		.loc 1 83 0
 296 000e 9093 0000 		sts last_consumer_report+1,r25
 297 0012 8093 0000 		sts last_consumer_report,r24
  84:../../common/host.c **** 
  85:../../common/host.c ****     if (!driver) return;
 298               		.loc 1 85 0
 299 0016 E091 0000 		lds r30,driver
 300 001a F091 0000 		lds r31,driver+1
 301 001e 3097      		sbiw r30,0
 302 0020 01F0      		breq .L35
  86:../../common/host.c ****     (*driver->send_consumer)(report);
 303               		.loc 1 86 0
 304 0022 0084      		ldd __tmp_reg__,Z+8
 305 0024 F185      		ldd r31,Z+9
 306 0026 E02D      		mov r30,__tmp_reg__
 307 0028 0994      		ijmp
 308               	.LVL16:
 309               	.L35:
 310 002a 0895      		ret
 311               		.cfi_endproc
 312               	.LFE105:
 314               		.section	.text.host_last_sysytem_report,"ax",@progbits
 315               	.global	host_last_sysytem_report
 317               	host_last_sysytem_report:
 318               	.LFB106:
  87:../../common/host.c **** }
  88:../../common/host.c **** 
  89:../../common/host.c **** uint16_t host_last_sysytem_report(void)
  90:../../common/host.c **** {
 319               		.loc 1 90 0
 320               		.cfi_startproc
 321               	/* prologue: function */
 322               	/* frame size = 0 */
 323               	/* stack size = 0 */
 324               	.L__stack_usage = 0
  91:../../common/host.c ****     return last_system_report;
  92:../../common/host.c **** }
 325               		.loc 1 92 0
 326 0000 8091 0000 		lds r24,last_system_report
 327 0004 9091 0000 		lds r25,last_system_report+1
 328 0008 0895      		ret
 329               		.cfi_endproc
 330               	.LFE106:
 332               		.section	.text.host_last_consumer_report,"ax",@progbits
 333               	.global	host_last_consumer_report
 335               	host_last_consumer_report:
 336               	.LFB107:
  93:../../common/host.c **** 
  94:../../common/host.c **** uint16_t host_last_consumer_report(void)
  95:../../common/host.c **** {
 337               		.loc 1 95 0
 338               		.cfi_startproc
 339               	/* prologue: function */
 340               	/* frame size = 0 */
 341               	/* stack size = 0 */
 342               	.L__stack_usage = 0
  96:../../common/host.c ****     return last_consumer_report;
  97:../../common/host.c **** }
 343               		.loc 1 97 0
 344 0000 8091 0000 		lds r24,last_consumer_report
 345 0004 9091 0000 		lds r25,last_consumer_report+1
 346 0008 0895      		ret
 347               		.cfi_endproc
 348               	.LFE107:
 350               		.section	.progmem.data,"a",@progbits
 353               	__c.4527:
 354 0000 0A00      		.string	"\n"
 357               	__c.4522:
 358 0002 2530 3258 		.string	"%02X "
 358      2000 
 361               	__c.4519:
 362 0008 6B65 7962 		.string	"keyboard_report: "
 362      6F61 7264 
 362      5F72 6570 
 362      6F72 743A 
 362      2000 
 363               		.local	last_consumer_report
 364               		.comm	last_consumer_report,2,1
 365               		.local	last_system_report
 366               		.comm	last_system_report,2,1
 367               		.local	driver
 368               		.comm	driver,2,1
 369               	.global	keyboard_nkro
 370               		.section .bss
 373               	keyboard_nkro:
 374 0000 00        		.zero	1
 375               		.comm	debug_config,1,1
 376               		.text
 377               	.Letext0:
 378               		.file 2 "/usr/avr/include/stdint.h"
 379               		.file 3 "../../common/report.h"
 380               		.file 4 "../../common/host_driver.h"
 381               		.file 5 "../../common/debug_config.h"
 382               		.file 6 "../../protocol/lufa/LUFA-120730/LUFA/Drivers/USB/Core/USBTask.h"
 383               		.file 7 "../../common/xprintf.h"